;******************************************************************************
;* TI ARM G3 C/C++ Codegen                                              PC v20.2.5.LTS *
;* Date/Time created: Fri Jun 17 10:02:17 2022                                *
;******************************************************************************
	.compiler_opts --abi=eabi --arm_vmrs_si_workaround=off --code_state=16 --diag_wrap=off --embedded_constants=on --endian=little --float_support=FPv4SPD16 --hll_source=on --object_format=elf --silicon_version=7M4 --symdebug:dwarf --symdebug:dwarf_version=3 --unaligned_access=on 
	.thumb

$C$DW$CU	.dwtag  DW_TAG_compile_unit
	.dwattr $C$DW$CU, DW_AT_name("C:/Tools/Thirdparty/FreeRTOSv202112.00/FreeRTOS/Source/tasks.c")
	.dwattr $C$DW$CU, DW_AT_producer("TI TI ARM G3 C/C++ Codegen PC v20.2.5.LTS Copyright (c) 1996-2018 Texas Instruments Incorporated")
	.dwattr $C$DW$CU, DW_AT_TI_version(0x01)
	.dwattr $C$DW$CU, DW_AT_comp_dir("C:\Verteilte_Systeme_CoAP_Client_SensorToActuator\VS_Gr06_LabProject_CoAP_Client\Debug")
	.global	pxCurrentTCB
	.data
	.align	4
	.elfsym	pxCurrentTCB,SYM_SIZE(4)
pxCurrentTCB:
	.bits		0,32
			; pxCurrentTCB @ 0

$C$DW$1	.dwtag  DW_TAG_variable
	.dwattr $C$DW$1, DW_AT_name("pxCurrentTCB")
	.dwattr $C$DW$1, DW_AT_TI_symbol_name("pxCurrentTCB")
	.dwattr $C$DW$1, DW_AT_location[DW_OP_addr pxCurrentTCB]
	.dwattr $C$DW$1, DW_AT_type(*$C$DW$T$355)
	.dwattr $C$DW$1, DW_AT_external
	.dwattr $C$DW$1, DW_AT_decl_file("C:/Tools/Thirdparty/FreeRTOSv202112.00/FreeRTOS/Source/tasks.c")
	.dwattr $C$DW$1, DW_AT_decl_line(0x154)
	.dwattr $C$DW$1, DW_AT_decl_column(0x22)

pxReadyTasksLists:	.usect	".bss:pxReadyTasksLists",100,4
$C$DW$2	.dwtag  DW_TAG_variable
	.dwattr $C$DW$2, DW_AT_name("pxReadyTasksLists")
	.dwattr $C$DW$2, DW_AT_TI_symbol_name("pxReadyTasksLists")
	.dwattr $C$DW$2, DW_AT_type(*$C$DW$T$359)
	.dwattr $C$DW$2, DW_AT_location[DW_OP_addr pxReadyTasksLists]
	.dwattr $C$DW$2, DW_AT_decl_file("C:/Tools/Thirdparty/FreeRTOSv202112.00/FreeRTOS/Source/tasks.c")
	.dwattr $C$DW$2, DW_AT_decl_line(0x15a)
	.dwattr $C$DW$2, DW_AT_decl_column(0x1f)

xDelayedTaskList1:	.usect	".bss:xDelayedTaskList1",20,4
$C$DW$3	.dwtag  DW_TAG_variable
	.dwattr $C$DW$3, DW_AT_name("xDelayedTaskList1")
	.dwattr $C$DW$3, DW_AT_TI_symbol_name("xDelayedTaskList1")
	.dwattr $C$DW$3, DW_AT_type(*$C$DW$T$119)
	.dwattr $C$DW$3, DW_AT_location[DW_OP_addr xDelayedTaskList1]
	.dwattr $C$DW$3, DW_AT_decl_file("C:/Tools/Thirdparty/FreeRTOSv202112.00/FreeRTOS/Source/tasks.c")
	.dwattr $C$DW$3, DW_AT_decl_line(0x15b)
	.dwattr $C$DW$3, DW_AT_decl_column(0x1f)

xDelayedTaskList2:	.usect	".bss:xDelayedTaskList2",20,4
$C$DW$4	.dwtag  DW_TAG_variable
	.dwattr $C$DW$4, DW_AT_name("xDelayedTaskList2")
	.dwattr $C$DW$4, DW_AT_TI_symbol_name("xDelayedTaskList2")
	.dwattr $C$DW$4, DW_AT_type(*$C$DW$T$119)
	.dwattr $C$DW$4, DW_AT_location[DW_OP_addr xDelayedTaskList2]
	.dwattr $C$DW$4, DW_AT_decl_file("C:/Tools/Thirdparty/FreeRTOSv202112.00/FreeRTOS/Source/tasks.c")
	.dwattr $C$DW$4, DW_AT_decl_line(0x15c)
	.dwattr $C$DW$4, DW_AT_decl_column(0x1f)

	.bss	pxDelayedTaskList,4,4
$C$DW$5	.dwtag  DW_TAG_variable
	.dwattr $C$DW$5, DW_AT_name("pxDelayedTaskList")
	.dwattr $C$DW$5, DW_AT_TI_symbol_name("pxDelayedTaskList")
	.dwattr $C$DW$5, DW_AT_type(*$C$DW$T$358)
	.dwattr $C$DW$5, DW_AT_location[DW_OP_addr pxDelayedTaskList]
	.dwattr $C$DW$5, DW_AT_decl_file("C:/Tools/Thirdparty/FreeRTOSv202112.00/FreeRTOS/Source/tasks.c")
	.dwattr $C$DW$5, DW_AT_decl_line(0x15d)
	.dwattr $C$DW$5, DW_AT_decl_column(0x2a)

	.bss	pxOverflowDelayedTaskList,4,4
$C$DW$6	.dwtag  DW_TAG_variable
	.dwattr $C$DW$6, DW_AT_name("pxOverflowDelayedTaskList")
	.dwattr $C$DW$6, DW_AT_TI_symbol_name("pxOverflowDelayedTaskList")
	.dwattr $C$DW$6, DW_AT_type(*$C$DW$T$358)
	.dwattr $C$DW$6, DW_AT_location[DW_OP_addr pxOverflowDelayedTaskList]
	.dwattr $C$DW$6, DW_AT_decl_file("C:/Tools/Thirdparty/FreeRTOSv202112.00/FreeRTOS/Source/tasks.c")
	.dwattr $C$DW$6, DW_AT_decl_line(0x15e)
	.dwattr $C$DW$6, DW_AT_decl_column(0x2a)

xPendingReadyList:	.usect	".bss:xPendingReadyList",20,4
$C$DW$7	.dwtag  DW_TAG_variable
	.dwattr $C$DW$7, DW_AT_name("xPendingReadyList")
	.dwattr $C$DW$7, DW_AT_TI_symbol_name("xPendingReadyList")
	.dwattr $C$DW$7, DW_AT_type(*$C$DW$T$119)
	.dwattr $C$DW$7, DW_AT_location[DW_OP_addr xPendingReadyList]
	.dwattr $C$DW$7, DW_AT_decl_file("C:/Tools/Thirdparty/FreeRTOSv202112.00/FreeRTOS/Source/tasks.c")
	.dwattr $C$DW$7, DW_AT_decl_line(0x15f)
	.dwattr $C$DW$7, DW_AT_decl_column(0x1f)

xTasksWaitingTermination:	.usect	".bss:xTasksWaitingTermination",20,4
$C$DW$8	.dwtag  DW_TAG_variable
	.dwattr $C$DW$8, DW_AT_name("xTasksWaitingTermination")
	.dwattr $C$DW$8, DW_AT_TI_symbol_name("xTasksWaitingTermination")
	.dwattr $C$DW$8, DW_AT_type(*$C$DW$T$119)
	.dwattr $C$DW$8, DW_AT_location[DW_OP_addr xTasksWaitingTermination]
	.dwattr $C$DW$8, DW_AT_decl_file("C:/Tools/Thirdparty/FreeRTOSv202112.00/FreeRTOS/Source/tasks.c")
	.dwattr $C$DW$8, DW_AT_decl_line(0x163)
	.dwattr $C$DW$8, DW_AT_decl_column(0x23)

	.data
	.align	4
	.elfsym	uxDeletedTasksWaitingCleanUp,SYM_SIZE(4)
uxDeletedTasksWaitingCleanUp:
	.bits		0,32
			; uxDeletedTasksWaitingCleanUp @ 0

$C$DW$9	.dwtag  DW_TAG_variable
	.dwattr $C$DW$9, DW_AT_name("uxDeletedTasksWaitingCleanUp")
	.dwattr $C$DW$9, DW_AT_TI_symbol_name("uxDeletedTasksWaitingCleanUp")
	.dwattr $C$DW$9, DW_AT_type(*$C$DW$T$50)
	.dwattr $C$DW$9, DW_AT_location[DW_OP_addr uxDeletedTasksWaitingCleanUp]
	.dwattr $C$DW$9, DW_AT_decl_file("C:/Tools/Thirdparty/FreeRTOSv202112.00/FreeRTOS/Source/tasks.c")
	.dwattr $C$DW$9, DW_AT_decl_line(0x164)
	.dwattr $C$DW$9, DW_AT_decl_column(0x31)

xSuspendedTaskList:	.usect	".bss:xSuspendedTaskList",20,4
$C$DW$10	.dwtag  DW_TAG_variable
	.dwattr $C$DW$10, DW_AT_name("xSuspendedTaskList")
	.dwattr $C$DW$10, DW_AT_TI_symbol_name("xSuspendedTaskList")
	.dwattr $C$DW$10, DW_AT_type(*$C$DW$T$119)
	.dwattr $C$DW$10, DW_AT_location[DW_OP_addr xSuspendedTaskList]
	.dwattr $C$DW$10, DW_AT_decl_file("C:/Tools/Thirdparty/FreeRTOSv202112.00/FreeRTOS/Source/tasks.c")
	.dwattr $C$DW$10, DW_AT_decl_line(0x16a)
	.dwattr $C$DW$10, DW_AT_decl_column(0x23)

	.data
	.align	4
	.elfsym	uxCurrentNumberOfTasks,SYM_SIZE(4)
uxCurrentNumberOfTasks:
	.bits		0,32
			; uxCurrentNumberOfTasks @ 0

$C$DW$11	.dwtag  DW_TAG_variable
	.dwattr $C$DW$11, DW_AT_name("uxCurrentNumberOfTasks")
	.dwattr $C$DW$11, DW_AT_TI_symbol_name("uxCurrentNumberOfTasks")
	.dwattr $C$DW$11, DW_AT_type(*$C$DW$T$50)
	.dwattr $C$DW$11, DW_AT_location[DW_OP_addr uxCurrentNumberOfTasks]
	.dwattr $C$DW$11, DW_AT_decl_file("C:/Tools/Thirdparty/FreeRTOSv202112.00/FreeRTOS/Source/tasks.c")
	.dwattr $C$DW$11, DW_AT_decl_line(0x175)
	.dwattr $C$DW$11, DW_AT_decl_column(0x2d)

	.data
	.align	4
	.elfsym	xTickCount,SYM_SIZE(4)
xTickCount:
	.bits		0,32
			; xTickCount @ 0

$C$DW$12	.dwtag  DW_TAG_variable
	.dwattr $C$DW$12, DW_AT_name("xTickCount")
	.dwattr $C$DW$12, DW_AT_TI_symbol_name("xTickCount")
	.dwattr $C$DW$12, DW_AT_type(*$C$DW$T$267)
	.dwattr $C$DW$12, DW_AT_location[DW_OP_addr xTickCount]
	.dwattr $C$DW$12, DW_AT_decl_file("C:/Tools/Thirdparty/FreeRTOSv202112.00/FreeRTOS/Source/tasks.c")
	.dwattr $C$DW$12, DW_AT_decl_line(0x176)
	.dwattr $C$DW$12, DW_AT_decl_column(0x2c)

	.data
	.align	4
	.elfsym	uxTopReadyPriority,SYM_SIZE(4)
uxTopReadyPriority:
	.bits		0,32
			; uxTopReadyPriority @ 0

$C$DW$13	.dwtag  DW_TAG_variable
	.dwattr $C$DW$13, DW_AT_name("uxTopReadyPriority")
	.dwattr $C$DW$13, DW_AT_TI_symbol_name("uxTopReadyPriority")
	.dwattr $C$DW$13, DW_AT_type(*$C$DW$T$50)
	.dwattr $C$DW$13, DW_AT_location[DW_OP_addr uxTopReadyPriority]
	.dwattr $C$DW$13, DW_AT_decl_file("C:/Tools/Thirdparty/FreeRTOSv202112.00/FreeRTOS/Source/tasks.c")
	.dwattr $C$DW$13, DW_AT_decl_line(0x177)
	.dwattr $C$DW$13, DW_AT_decl_column(0x2d)

	.data
	.align	4
	.elfsym	xSchedulerRunning,SYM_SIZE(4)
xSchedulerRunning:
	.bits		0,32
			; xSchedulerRunning @ 0

$C$DW$14	.dwtag  DW_TAG_variable
	.dwattr $C$DW$14, DW_AT_name("xSchedulerRunning")
	.dwattr $C$DW$14, DW_AT_TI_symbol_name("xSchedulerRunning")
	.dwattr $C$DW$14, DW_AT_type(*$C$DW$T$277)
	.dwattr $C$DW$14, DW_AT_location[DW_OP_addr xSchedulerRunning]
	.dwattr $C$DW$14, DW_AT_decl_file("C:/Tools/Thirdparty/FreeRTOSv202112.00/FreeRTOS/Source/tasks.c")
	.dwattr $C$DW$14, DW_AT_decl_line(0x178)
	.dwattr $C$DW$14, DW_AT_decl_column(0x2c)

	.data
	.align	4
	.elfsym	xPendedTicks,SYM_SIZE(4)
xPendedTicks:
	.bits		0,32
			; xPendedTicks @ 0

$C$DW$15	.dwtag  DW_TAG_variable
	.dwattr $C$DW$15, DW_AT_name("xPendedTicks")
	.dwattr $C$DW$15, DW_AT_TI_symbol_name("xPendedTicks")
	.dwattr $C$DW$15, DW_AT_type(*$C$DW$T$267)
	.dwattr $C$DW$15, DW_AT_location[DW_OP_addr xPendedTicks]
	.dwattr $C$DW$15, DW_AT_decl_file("C:/Tools/Thirdparty/FreeRTOSv202112.00/FreeRTOS/Source/tasks.c")
	.dwattr $C$DW$15, DW_AT_decl_line(0x179)
	.dwattr $C$DW$15, DW_AT_decl_column(0x2c)

	.data
	.align	4
	.elfsym	xYieldPending,SYM_SIZE(4)
xYieldPending:
	.bits		0,32
			; xYieldPending @ 0

$C$DW$16	.dwtag  DW_TAG_variable
	.dwattr $C$DW$16, DW_AT_name("xYieldPending")
	.dwattr $C$DW$16, DW_AT_TI_symbol_name("xYieldPending")
	.dwattr $C$DW$16, DW_AT_type(*$C$DW$T$277)
	.dwattr $C$DW$16, DW_AT_location[DW_OP_addr xYieldPending]
	.dwattr $C$DW$16, DW_AT_decl_file("C:/Tools/Thirdparty/FreeRTOSv202112.00/FreeRTOS/Source/tasks.c")
	.dwattr $C$DW$16, DW_AT_decl_line(0x17a)
	.dwattr $C$DW$16, DW_AT_decl_column(0x2c)

	.data
	.align	4
	.elfsym	xNumOfOverflows,SYM_SIZE(4)
xNumOfOverflows:
	.bits		0,32
			; xNumOfOverflows @ 0

$C$DW$17	.dwtag  DW_TAG_variable
	.dwattr $C$DW$17, DW_AT_name("xNumOfOverflows")
	.dwattr $C$DW$17, DW_AT_TI_symbol_name("xNumOfOverflows")
	.dwattr $C$DW$17, DW_AT_type(*$C$DW$T$277)
	.dwattr $C$DW$17, DW_AT_location[DW_OP_addr xNumOfOverflows]
	.dwattr $C$DW$17, DW_AT_decl_file("C:/Tools/Thirdparty/FreeRTOSv202112.00/FreeRTOS/Source/tasks.c")
	.dwattr $C$DW$17, DW_AT_decl_line(0x17b)
	.dwattr $C$DW$17, DW_AT_decl_column(0x2c)

	.data
	.align	4
	.elfsym	uxTaskNumber,SYM_SIZE(4)
uxTaskNumber:
	.bits		0,32
			; uxTaskNumber @ 0

$C$DW$18	.dwtag  DW_TAG_variable
	.dwattr $C$DW$18, DW_AT_name("uxTaskNumber")
	.dwattr $C$DW$18, DW_AT_TI_symbol_name("uxTaskNumber")
	.dwattr $C$DW$18, DW_AT_type(*$C$DW$T$27)
	.dwattr $C$DW$18, DW_AT_location[DW_OP_addr uxTaskNumber]
	.dwattr $C$DW$18, DW_AT_decl_file("C:/Tools/Thirdparty/FreeRTOSv202112.00/FreeRTOS/Source/tasks.c")
	.dwattr $C$DW$18, DW_AT_decl_line(0x17c)
	.dwattr $C$DW$18, DW_AT_decl_column(0x24)

	.data
	.align	4
	.elfsym	xNextTaskUnblockTime,SYM_SIZE(4)
xNextTaskUnblockTime:
	.bits		0,32
			; xNextTaskUnblockTime @ 0

$C$DW$19	.dwtag  DW_TAG_variable
	.dwattr $C$DW$19, DW_AT_name("xNextTaskUnblockTime")
	.dwattr $C$DW$19, DW_AT_TI_symbol_name("xNextTaskUnblockTime")
	.dwattr $C$DW$19, DW_AT_type(*$C$DW$T$267)
	.dwattr $C$DW$19, DW_AT_location[DW_OP_addr xNextTaskUnblockTime]
	.dwattr $C$DW$19, DW_AT_decl_file("C:/Tools/Thirdparty/FreeRTOSv202112.00/FreeRTOS/Source/tasks.c")
	.dwattr $C$DW$19, DW_AT_decl_line(0x17d)
	.dwattr $C$DW$19, DW_AT_decl_column(0x2c)

	.data
	.align	4
	.elfsym	xIdleTaskHandle,SYM_SIZE(4)
xIdleTaskHandle:
	.bits		0,32
			; xIdleTaskHandle @ 0

$C$DW$20	.dwtag  DW_TAG_variable
	.dwattr $C$DW$20, DW_AT_name("xIdleTaskHandle")
	.dwattr $C$DW$20, DW_AT_TI_symbol_name("xIdleTaskHandle")
	.dwattr $C$DW$20, DW_AT_type(*$C$DW$T$94)
	.dwattr $C$DW$20, DW_AT_location[DW_OP_addr xIdleTaskHandle]
	.dwattr $C$DW$20, DW_AT_decl_file("C:/Tools/Thirdparty/FreeRTOSv202112.00/FreeRTOS/Source/tasks.c")
	.dwattr $C$DW$20, DW_AT_decl_line(0x17e)
	.dwattr $C$DW$20, DW_AT_decl_column(0x25)

	.global	uxTopUsedPriority
	.sect	".const"
	.align	4
	.elfsym	uxTopUsedPriority,SYM_SIZE(4)
uxTopUsedPriority:
	.bits		0x4,32
			; uxTopUsedPriority @ 0

$C$DW$21	.dwtag  DW_TAG_variable
	.dwattr $C$DW$21, DW_AT_name("uxTopUsedPriority")
	.dwattr $C$DW$21, DW_AT_TI_symbol_name("uxTopUsedPriority")
	.dwattr $C$DW$21, DW_AT_location[DW_OP_addr uxTopUsedPriority]
	.dwattr $C$DW$21, DW_AT_type(*$C$DW$T$303)
	.dwattr $C$DW$21, DW_AT_external
	.dwattr $C$DW$21, DW_AT_decl_file("C:/Tools/Thirdparty/FreeRTOSv202112.00/FreeRTOS/Source/tasks.c")
	.dwattr $C$DW$21, DW_AT_decl_line(0x183)
	.dwattr $C$DW$21, DW_AT_decl_column(0x1c)

	.data
	.align	4
	.elfsym	uxSchedulerSuspended,SYM_SIZE(4)
uxSchedulerSuspended:
	.bits		0,32
			; uxSchedulerSuspended @ 0

$C$DW$22	.dwtag  DW_TAG_variable
	.dwattr $C$DW$22, DW_AT_name("uxSchedulerSuspended")
	.dwattr $C$DW$22, DW_AT_TI_symbol_name("uxSchedulerSuspended")
	.dwattr $C$DW$22, DW_AT_type(*$C$DW$T$50)
	.dwattr $C$DW$22, DW_AT_location[DW_OP_addr uxSchedulerSuspended]
	.dwattr $C$DW$22, DW_AT_decl_file("C:/Tools/Thirdparty/FreeRTOSv202112.00/FreeRTOS/Source/tasks.c")
	.dwattr $C$DW$22, DW_AT_decl_line(0x18d)
	.dwattr $C$DW$22, DW_AT_decl_column(0x2d)


$C$DW$23	.dwtag  DW_TAG_subprogram
	.dwattr $C$DW$23, DW_AT_name("pvPortMalloc")
	.dwattr $C$DW$23, DW_AT_TI_symbol_name("pvPortMalloc")
	.dwattr $C$DW$23, DW_AT_type(*$C$DW$T$3)
	.dwattr $C$DW$23, DW_AT_declaration
	.dwattr $C$DW$23, DW_AT_external
	.dwattr $C$DW$23, DW_AT_decl_file("C:\Tools\ThirdParty\FreeRTOSv202112.00\FreeRTOS\Source\include\portable.h")
	.dwattr $C$DW$23, DW_AT_decl_line(0xaf)
	.dwattr $C$DW$23, DW_AT_decl_column(0x08)
$C$DW$24	.dwtag  DW_TAG_formal_parameter
	.dwattr $C$DW$24, DW_AT_type(*$C$DW$T$32)

	.dwendtag $C$DW$23


$C$DW$25	.dwtag  DW_TAG_subprogram
	.dwattr $C$DW$25, DW_AT_name("vPortFree")
	.dwattr $C$DW$25, DW_AT_TI_symbol_name("vPortFree")
	.dwattr $C$DW$25, DW_AT_declaration
	.dwattr $C$DW$25, DW_AT_external
	.dwattr $C$DW$25, DW_AT_decl_file("C:\Tools\ThirdParty\FreeRTOSv202112.00\FreeRTOS\Source\include\portable.h")
	.dwattr $C$DW$25, DW_AT_decl_line(0xb0)
	.dwattr $C$DW$25, DW_AT_decl_column(0x06)
$C$DW$26	.dwtag  DW_TAG_formal_parameter
	.dwattr $C$DW$26, DW_AT_type(*$C$DW$T$3)

	.dwendtag $C$DW$25


$C$DW$27	.dwtag  DW_TAG_subprogram
	.dwattr $C$DW$27, DW_AT_name("memset")
	.dwattr $C$DW$27, DW_AT_TI_symbol_name("memset")
	.dwattr $C$DW$27, DW_AT_type(*$C$DW$T$3)
	.dwattr $C$DW$27, DW_AT_declaration
	.dwattr $C$DW$27, DW_AT_external
	.dwattr $C$DW$27, DW_AT_decl_file("C:/Tools/TexasInstruments/ccs1120/ccs/tools/compiler/ti-cgt-arm_20.2.5.LTS/include/string.h")
	.dwattr $C$DW$27, DW_AT_decl_line(0x82)
	.dwattr $C$DW$27, DW_AT_decl_column(0x16)
$C$DW$28	.dwtag  DW_TAG_formal_parameter
	.dwattr $C$DW$28, DW_AT_type(*$C$DW$T$3)

$C$DW$29	.dwtag  DW_TAG_formal_parameter
	.dwattr $C$DW$29, DW_AT_type(*$C$DW$T$10)

$C$DW$30	.dwtag  DW_TAG_formal_parameter
	.dwattr $C$DW$30, DW_AT_type(*$C$DW$T$32)

	.dwendtag $C$DW$27


$C$DW$31	.dwtag  DW_TAG_subprogram
	.dwattr $C$DW$31, DW_AT_name("vListInitialiseItem")
	.dwattr $C$DW$31, DW_AT_TI_symbol_name("vListInitialiseItem")
	.dwattr $C$DW$31, DW_AT_declaration
	.dwattr $C$DW$31, DW_AT_external
	.dwattr $C$DW$31, DW_AT_decl_file("C:\Tools\ThirdParty\FreeRTOSv202112.00\FreeRTOS\Source\include\list.h")
	.dwattr $C$DW$31, DW_AT_decl_line(0x1b8)
	.dwattr $C$DW$31, DW_AT_decl_column(0x06)
$C$DW$32	.dwtag  DW_TAG_formal_parameter
	.dwattr $C$DW$32, DW_AT_type(*$C$DW$T$124)

	.dwendtag $C$DW$31


$C$DW$33	.dwtag  DW_TAG_subprogram
	.dwattr $C$DW$33, DW_AT_name("pxPortInitialiseStack")
	.dwattr $C$DW$33, DW_AT_TI_symbol_name("pxPortInitialiseStack")
	.dwattr $C$DW$33, DW_AT_type(*$C$DW$T$41)
	.dwattr $C$DW$33, DW_AT_declaration
	.dwattr $C$DW$33, DW_AT_external
	.dwattr $C$DW$33, DW_AT_decl_file("C:\Tools\ThirdParty\FreeRTOSv202112.00\FreeRTOS\Source\include\portable.h")
	.dwattr $C$DW$33, DW_AT_decl_line(0x7f)
	.dwattr $C$DW$33, DW_AT_decl_column(0x17)
$C$DW$34	.dwtag  DW_TAG_formal_parameter
	.dwattr $C$DW$34, DW_AT_type(*$C$DW$T$41)

$C$DW$35	.dwtag  DW_TAG_formal_parameter
	.dwattr $C$DW$35, DW_AT_type(*$C$DW$T$84)

$C$DW$36	.dwtag  DW_TAG_formal_parameter
	.dwattr $C$DW$36, DW_AT_type(*$C$DW$T$3)

	.dwendtag $C$DW$33


$C$DW$37	.dwtag  DW_TAG_subprogram
	.dwattr $C$DW$37, DW_AT_name("vPortEnterCritical")
	.dwattr $C$DW$37, DW_AT_TI_symbol_name("vPortEnterCritical")
	.dwattr $C$DW$37, DW_AT_declaration
	.dwattr $C$DW$37, DW_AT_external
	.dwattr $C$DW$37, DW_AT_decl_file("C:/Tools/ThirdParty/FreeRTOSv202112.00/FreeRTOS/Source/portable/CCS/ARM_CM4F/portmacro.h")
	.dwattr $C$DW$37, DW_AT_decl_line(0x77)
	.dwattr $C$DW$37, DW_AT_decl_column(0x11)
	.dwendtag $C$DW$37


$C$DW$38	.dwtag  DW_TAG_subprogram
	.dwattr $C$DW$38, DW_AT_name("vPortExitCritical")
	.dwattr $C$DW$38, DW_AT_TI_symbol_name("vPortExitCritical")
	.dwattr $C$DW$38, DW_AT_declaration
	.dwattr $C$DW$38, DW_AT_external
	.dwattr $C$DW$38, DW_AT_decl_file("C:/Tools/ThirdParty/FreeRTOSv202112.00/FreeRTOS/Source/portable/CCS/ARM_CM4F/portmacro.h")
	.dwattr $C$DW$38, DW_AT_decl_line(0x78)
	.dwattr $C$DW$38, DW_AT_decl_column(0x11)
	.dwendtag $C$DW$38


$C$DW$39	.dwtag  DW_TAG_subprogram
	.dwattr $C$DW$39, DW_AT_name("uxListRemove")
	.dwattr $C$DW$39, DW_AT_TI_symbol_name("uxListRemove")
	.dwattr $C$DW$39, DW_AT_type(*$C$DW$T$27)
	.dwattr $C$DW$39, DW_AT_declaration
	.dwattr $C$DW$39, DW_AT_external
	.dwattr $C$DW$39, DW_AT_decl_file("C:\Tools\ThirdParty\FreeRTOSv202112.00\FreeRTOS\Source\include\list.h")
	.dwattr $C$DW$39, DW_AT_decl_line(0x1eb)
	.dwattr $C$DW$39, DW_AT_decl_column(0x0d)
$C$DW$40	.dwtag  DW_TAG_formal_parameter
	.dwattr $C$DW$40, DW_AT_type(*$C$DW$T$124)

	.dwendtag $C$DW$39


$C$DW$41	.dwtag  DW_TAG_subprogram
	.dwattr $C$DW$41, DW_AT_name("vListInsertEnd")
	.dwattr $C$DW$41, DW_AT_TI_symbol_name("vListInsertEnd")
	.dwattr $C$DW$41, DW_AT_declaration
	.dwattr $C$DW$41, DW_AT_external
	.dwattr $C$DW$41, DW_AT_decl_file("C:\Tools\ThirdParty\FreeRTOSv202112.00\FreeRTOS\Source\include\list.h")
	.dwattr $C$DW$41, DW_AT_decl_line(0x1db)
	.dwattr $C$DW$41, DW_AT_decl_column(0x06)
$C$DW$42	.dwtag  DW_TAG_formal_parameter
	.dwattr $C$DW$42, DW_AT_type(*$C$DW$T$121)

$C$DW$43	.dwtag  DW_TAG_formal_parameter
	.dwattr $C$DW$43, DW_AT_type(*$C$DW$T$124)

	.dwendtag $C$DW$41


$C$DW$44	.dwtag  DW_TAG_subprogram
	.dwattr $C$DW$44, DW_AT_name("xTimerCreateTimerTask")
	.dwattr $C$DW$44, DW_AT_TI_symbol_name("xTimerCreateTimerTask")
	.dwattr $C$DW$44, DW_AT_type(*$C$DW$T$98)
	.dwattr $C$DW$44, DW_AT_declaration
	.dwattr $C$DW$44, DW_AT_external
	.dwattr $C$DW$44, DW_AT_decl_file("C:/Tools/ThirdParty/FreeRTOSv202112.00/FreeRTOS/Source/include/timers.h")
	.dwattr $C$DW$44, DW_AT_decl_line(0x524)
	.dwattr $C$DW$44, DW_AT_decl_column(0x0c)
	.dwendtag $C$DW$44


$C$DW$45	.dwtag  DW_TAG_subprogram
	.dwattr $C$DW$45, DW_AT_name("xPortStartScheduler")
	.dwattr $C$DW$45, DW_AT_TI_symbol_name("xPortStartScheduler")
	.dwattr $C$DW$45, DW_AT_type(*$C$DW$T$98)
	.dwattr $C$DW$45, DW_AT_declaration
	.dwattr $C$DW$45, DW_AT_external
	.dwattr $C$DW$45, DW_AT_decl_file("C:\Tools\ThirdParty\FreeRTOSv202112.00\FreeRTOS\Source\include\portable.h")
	.dwattr $C$DW$45, DW_AT_decl_line(0xc1)
	.dwattr $C$DW$45, DW_AT_decl_column(0x0c)
	.dwendtag $C$DW$45


$C$DW$46	.dwtag  DW_TAG_subprogram
	.dwattr $C$DW$46, DW_AT_name("vPortEndScheduler")
	.dwattr $C$DW$46, DW_AT_TI_symbol_name("vPortEndScheduler")
	.dwattr $C$DW$46, DW_AT_declaration
	.dwattr $C$DW$46, DW_AT_external
	.dwattr $C$DW$46, DW_AT_decl_file("C:\Tools\ThirdParty\FreeRTOSv202112.00\FreeRTOS\Source\include\portable.h")
	.dwattr $C$DW$46, DW_AT_decl_line(0xc8)
	.dwattr $C$DW$46, DW_AT_decl_column(0x06)
	.dwendtag $C$DW$46


$C$DW$47	.dwtag  DW_TAG_subprogram
	.dwattr $C$DW$47, DW_AT_name("vListInsert")
	.dwattr $C$DW$47, DW_AT_TI_symbol_name("vListInsert")
	.dwattr $C$DW$47, DW_AT_declaration
	.dwattr $C$DW$47, DW_AT_external
	.dwattr $C$DW$47, DW_AT_decl_file("C:\Tools\ThirdParty\FreeRTOSv202112.00\FreeRTOS\Source\include\list.h")
	.dwattr $C$DW$47, DW_AT_decl_line(0x1c5)
	.dwattr $C$DW$47, DW_AT_decl_column(0x06)
$C$DW$48	.dwtag  DW_TAG_formal_parameter
	.dwattr $C$DW$48, DW_AT_type(*$C$DW$T$121)

$C$DW$49	.dwtag  DW_TAG_formal_parameter
	.dwattr $C$DW$49, DW_AT_type(*$C$DW$T$124)

	.dwendtag $C$DW$47


$C$DW$50	.dwtag  DW_TAG_subprogram
	.dwattr $C$DW$50, DW_AT_name("vListInitialise")
	.dwattr $C$DW$50, DW_AT_TI_symbol_name("vListInitialise")
	.dwattr $C$DW$50, DW_AT_declaration
	.dwattr $C$DW$50, DW_AT_external
	.dwattr $C$DW$50, DW_AT_decl_file("C:\Tools\ThirdParty\FreeRTOSv202112.00\FreeRTOS\Source\include\list.h")
	.dwattr $C$DW$50, DW_AT_decl_line(0x1ad)
	.dwattr $C$DW$50, DW_AT_decl_column(0x06)
$C$DW$51	.dwtag  DW_TAG_formal_parameter
	.dwattr $C$DW$51, DW_AT_type(*$C$DW$T$121)

	.dwendtag $C$DW$50

;	C:\Tools\TexasInstruments\ccs1120\ccs\tools\compiler\ti-cgt-arm_20.2.5.LTS\bin\armacpia.exe -@C:\\Users\\pascal\\AppData\\Local\\Temp\\{7E02305A-BD53-49F9-B305-6DAC58469785} 
	.sect	".text"
	.clink
	.thumbfunc xTaskCreate
	.thumb
	.global	xTaskCreate

$C$DW$52	.dwtag  DW_TAG_subprogram
	.dwattr $C$DW$52, DW_AT_name("xTaskCreate")
	.dwattr $C$DW$52, DW_AT_low_pc(xTaskCreate)
	.dwattr $C$DW$52, DW_AT_high_pc(0x00)
	.dwattr $C$DW$52, DW_AT_TI_symbol_name("xTaskCreate")
	.dwattr $C$DW$52, DW_AT_external
	.dwattr $C$DW$52, DW_AT_type(*$C$DW$T$98)
	.dwattr $C$DW$52, DW_AT_TI_begin_file("C:/Tools/Thirdparty/FreeRTOSv202112.00/FreeRTOS/Source/tasks.c")
	.dwattr $C$DW$52, DW_AT_TI_begin_line(0x2d8)
	.dwattr $C$DW$52, DW_AT_TI_begin_column(0x10)
	.dwattr $C$DW$52, DW_AT_decl_file("C:/Tools/Thirdparty/FreeRTOSv202112.00/FreeRTOS/Source/tasks.c")
	.dwattr $C$DW$52, DW_AT_decl_line(0x2d8)
	.dwattr $C$DW$52, DW_AT_decl_column(0x10)
	.dwattr $C$DW$52, DW_AT_TI_max_frame_size(0x30)
	.dwpsn	file "C:/Tools/Thirdparty/FreeRTOSv202112.00/FreeRTOS/Source/tasks.c",line 734,column 5,is_stmt,address xTaskCreate,isa 1

	.dwfde $C$DW$CIE, xTaskCreate
$C$DW$53	.dwtag  DW_TAG_formal_parameter
	.dwattr $C$DW$53, DW_AT_name("pxTaskCode")
	.dwattr $C$DW$53, DW_AT_TI_symbol_name("pxTaskCode")
	.dwattr $C$DW$53, DW_AT_type(*$C$DW$T$84)
	.dwattr $C$DW$53, DW_AT_location[DW_OP_reg0]

$C$DW$54	.dwtag  DW_TAG_formal_parameter
	.dwattr $C$DW$54, DW_AT_name("pcName")
	.dwattr $C$DW$54, DW_AT_TI_symbol_name("pcName")
	.dwattr $C$DW$54, DW_AT_type(*$C$DW$T$129)
	.dwattr $C$DW$54, DW_AT_location[DW_OP_reg1]

$C$DW$55	.dwtag  DW_TAG_formal_parameter
	.dwattr $C$DW$55, DW_AT_name("usStackDepth")
	.dwattr $C$DW$55, DW_AT_TI_symbol_name("usStackDepth")
	.dwattr $C$DW$55, DW_AT_type(*$C$DW$T$10)
	.dwattr $C$DW$55, DW_AT_location[DW_OP_reg2]

$C$DW$56	.dwtag  DW_TAG_formal_parameter
	.dwattr $C$DW$56, DW_AT_name("pvParameters")
	.dwattr $C$DW$56, DW_AT_TI_symbol_name("pvParameters")
	.dwattr $C$DW$56, DW_AT_type(*$C$DW$T$115)
	.dwattr $C$DW$56, DW_AT_location[DW_OP_reg3]

$C$DW$57	.dwtag  DW_TAG_formal_parameter
	.dwattr $C$DW$57, DW_AT_name("uxPriority")
	.dwattr $C$DW$57, DW_AT_TI_symbol_name("uxPriority")
	.dwattr $C$DW$57, DW_AT_type(*$C$DW$T$27)
	.dwattr $C$DW$57, DW_AT_location[DW_OP_breg13 48]

$C$DW$58	.dwtag  DW_TAG_formal_parameter
	.dwattr $C$DW$58, DW_AT_name("pxCreatedTask")
	.dwattr $C$DW$58, DW_AT_TI_symbol_name("pxCreatedTask")
	.dwattr $C$DW$58, DW_AT_type(*$C$DW$T$132)
	.dwattr $C$DW$58, DW_AT_location[DW_OP_breg13 52]


;*****************************************************************************
;* FUNCTION NAME: xTaskCreate                                                *
;*                                                                           *
;*   Regs Modified     : A1,A2,A3,A4,V9,SP,LR,SR,D0,D0_hi,D1,D1_hi,D2,D2_hi, *
;*                           D3,D3_hi,D4,D4_hi,D5,D5_hi,D6,D6_hi,D7,D7_hi,   *
;*                           FPEXC,FPSCR                                     *
;*   Regs Used         : A1,A2,A3,A4,V9,SP,LR,SR,D0,D0_hi,D1,D1_hi,D2,D2_hi, *
;*                           D3,D3_hi,D4,D4_hi,D5,D5_hi,D6,D6_hi,D7,D7_hi,   *
;*                           FPEXC,FPSCR                                     *
;*   Local Frame Size  : 16 Args + 28 Auto + 4 Save = 48 byte                *
;*****************************************************************************
xTaskCreate:
;* --------------------------------------------------------------------------*
	.dwcfi	cfa_offset, 0
        PUSH      {LR}                  ; [DPU_V7M3_PIPE] 
	.dwcfi	cfa_offset, 4
	.dwcfi	save_reg_to_mem, 14, -4
        SUB       SP, SP, #44           ; [DPU_V7M3_PIPE] 
	.dwcfi	cfa_offset, 48
$C$DW$59	.dwtag  DW_TAG_variable
	.dwattr $C$DW$59, DW_AT_name("pxTaskCode")
	.dwattr $C$DW$59, DW_AT_TI_symbol_name("pxTaskCode")
	.dwattr $C$DW$59, DW_AT_type(*$C$DW$T$84)
	.dwattr $C$DW$59, DW_AT_location[DW_OP_breg13 16]

$C$DW$60	.dwtag  DW_TAG_variable
	.dwattr $C$DW$60, DW_AT_name("pcName")
	.dwattr $C$DW$60, DW_AT_TI_symbol_name("pcName")
	.dwattr $C$DW$60, DW_AT_type(*$C$DW$T$129)
	.dwattr $C$DW$60, DW_AT_location[DW_OP_breg13 20]

$C$DW$61	.dwtag  DW_TAG_variable
	.dwattr $C$DW$61, DW_AT_name("pvParameters")
	.dwattr $C$DW$61, DW_AT_TI_symbol_name("pvParameters")
	.dwattr $C$DW$61, DW_AT_type(*$C$DW$T$115)
	.dwattr $C$DW$61, DW_AT_location[DW_OP_breg13 24]

$C$DW$62	.dwtag  DW_TAG_variable
	.dwattr $C$DW$62, DW_AT_name("pxNewTCB")
	.dwattr $C$DW$62, DW_AT_TI_symbol_name("pxNewTCB")
	.dwattr $C$DW$62, DW_AT_type(*$C$DW$T$135)
	.dwattr $C$DW$62, DW_AT_location[DW_OP_breg13 28]

$C$DW$63	.dwtag  DW_TAG_variable
	.dwattr $C$DW$63, DW_AT_name("xReturn")
	.dwattr $C$DW$63, DW_AT_TI_symbol_name("xReturn")
	.dwattr $C$DW$63, DW_AT_type(*$C$DW$T$98)
	.dwattr $C$DW$63, DW_AT_location[DW_OP_breg13 32]

$C$DW$64	.dwtag  DW_TAG_variable
	.dwattr $C$DW$64, DW_AT_name("usStackDepth")
	.dwattr $C$DW$64, DW_AT_TI_symbol_name("usStackDepth")
	.dwattr $C$DW$64, DW_AT_type(*$C$DW$T$203)
	.dwattr $C$DW$64, DW_AT_location[DW_OP_breg13 36]

        STR       A4, [SP, #24]         ; [DPU_V7M3_PIPE] |734| 
        STRH      A3, [SP, #36]         ; [DPU_V7M3_PIPE] |734| 
        STR       A2, [SP, #20]         ; [DPU_V7M3_PIPE] |734| 
        STR       A1, [SP, #16]         ; [DPU_V7M3_PIPE] |734| 

$C$DW$65	.dwtag  DW_TAG_lexical_block
	.dwattr $C$DW$65, DW_AT_low_pc(0x00)
	.dwattr $C$DW$65, DW_AT_high_pc(0x00)
$C$DW$66	.dwtag  DW_TAG_variable
	.dwattr $C$DW$66, DW_AT_name("pxStack")
	.dwattr $C$DW$66, DW_AT_TI_symbol_name("pxStack")
	.dwattr $C$DW$66, DW_AT_type(*$C$DW$T$41)
	.dwattr $C$DW$66, DW_AT_location[DW_OP_breg13 40]

	.dwpsn	file "C:/Tools/Thirdparty/FreeRTOSv202112.00/FreeRTOS/Source/tasks.c",line 768,column 17,is_stmt,isa 1
        LDRH      A1, [SP, #36]         ; [DPU_V7M3_PIPE] |768| 
        LSLS      A1, A1, #2            ; [DPU_V7M3_PIPE] |768| 
$C$DW$67	.dwtag  DW_TAG_TI_branch
	.dwattr $C$DW$67, DW_AT_low_pc(0x00)
	.dwattr $C$DW$67, DW_AT_name("pvPortMalloc")
	.dwattr $C$DW$67, DW_AT_TI_call

        BL        pvPortMalloc          ; [DPU_V7M3_PIPE] |768| 
        ; CALL OCCURS {pvPortMalloc }    ; [] |768| 
        STR       A1, [SP, #40]         ; [DPU_V7M3_PIPE] |768| 
	.dwpsn	file "C:/Tools/Thirdparty/FreeRTOSv202112.00/FreeRTOS/Source/tasks.c",line 770,column 17,is_stmt,isa 1
        LDR       A1, [SP, #40]         ; [DPU_V7M3_PIPE] |770| 
        CBZ       A1, ||$C$L2||         ; [] 
        ; BRANCHCC OCCURS {||$C$L2||}    ; [] |770| 
;* --------------------------------------------------------------------------*
	.dwpsn	file "C:/Tools/Thirdparty/FreeRTOSv202112.00/FreeRTOS/Source/tasks.c",line 773,column 21,is_stmt,isa 1
        MOVS      A1, #100              ; [DPU_V7M3_PIPE] |773| 
$C$DW$68	.dwtag  DW_TAG_TI_branch
	.dwattr $C$DW$68, DW_AT_low_pc(0x00)
	.dwattr $C$DW$68, DW_AT_name("pvPortMalloc")
	.dwattr $C$DW$68, DW_AT_TI_call

        BL        pvPortMalloc          ; [DPU_V7M3_PIPE] |773| 
        ; CALL OCCURS {pvPortMalloc }    ; [] |773| 
        STR       A1, [SP, #28]         ; [DPU_V7M3_PIPE] |773| 
	.dwpsn	file "C:/Tools/Thirdparty/FreeRTOSv202112.00/FreeRTOS/Source/tasks.c",line 775,column 21,is_stmt,isa 1
        LDR       A1, [SP, #28]         ; [DPU_V7M3_PIPE] |775| 
        CBZ       A1, ||$C$L1||         ; [] 
        ; BRANCHCC OCCURS {||$C$L1||}    ; [] |775| 
;* --------------------------------------------------------------------------*
	.dwpsn	file "C:/Tools/Thirdparty/FreeRTOSv202112.00/FreeRTOS/Source/tasks.c",line 778,column 25,is_stmt,isa 1
        LDR       A1, [SP, #40]         ; [DPU_V7M3_PIPE] |778| 
        LDR       A2, [SP, #28]         ; [DPU_V7M3_PIPE] |778| 
        STR       A1, [A2, #48]         ; [DPU_V7M3_PIPE] |778| 
        B         ||$C$L3||             ; [DPU_V7M3_PIPE] 
        ; BRANCH OCCURS {||$C$L3||}      ; [] 
;* --------------------------------------------------------------------------*
||$C$L1||:    
	.dwpsn	file "C:/Tools/Thirdparty/FreeRTOSv202112.00/FreeRTOS/Source/tasks.c",line 784,column 25,is_stmt,isa 1
        LDR       A1, [SP, #40]         ; [DPU_V7M3_PIPE] |784| 
$C$DW$69	.dwtag  DW_TAG_TI_branch
	.dwattr $C$DW$69, DW_AT_low_pc(0x00)
	.dwattr $C$DW$69, DW_AT_name("vPortFree")
	.dwattr $C$DW$69, DW_AT_TI_call

        BL        vPortFree             ; [DPU_V7M3_PIPE] |784| 
        ; CALL OCCURS {vPortFree }       ; [] |784| 
        B         ||$C$L3||             ; [DPU_V7M3_PIPE] 
        ; BRANCH OCCURS {||$C$L3||}      ; [] 
;* --------------------------------------------------------------------------*
||$C$L2||:    
	.dwpsn	file "C:/Tools/Thirdparty/FreeRTOSv202112.00/FreeRTOS/Source/tasks.c",line 789,column 21,is_stmt,isa 1
        MOVS      A1, #0                ; [DPU_V7M3_PIPE] |789| 
        STR       A1, [SP, #28]         ; [DPU_V7M3_PIPE] |789| 
;* --------------------------------------------------------------------------*
||$C$L3||:    
	.dwendtag $C$DW$65

	.dwpsn	file "C:/Tools/Thirdparty/FreeRTOSv202112.00/FreeRTOS/Source/tasks.c",line 794,column 9,is_stmt,isa 1
        LDR       A1, [SP, #28]         ; [DPU_V7M3_PIPE] |794| 
        CBZ       A1, ||$C$L4||         ; [] 
        ; BRANCHCC OCCURS {||$C$L4||}    ; [] |794| 
;* --------------------------------------------------------------------------*
	.dwpsn	file "C:/Tools/Thirdparty/FreeRTOSv202112.00/FreeRTOS/Source/tasks.c",line 804,column 13,is_stmt,isa 1
        LDR       A1, [SP, #48]         ; [DPU_V7M3_PIPE] |804| 
        STR       A1, [SP, #0]          ; [DPU_V7M3_PIPE] |804| 
        LDR       A1, [SP, #52]         ; [DPU_V7M3_PIPE] |804| 
        STR       A1, [SP, #4]          ; [DPU_V7M3_PIPE] |804| 
        LDR       A1, [SP, #28]         ; [DPU_V7M3_PIPE] |804| 
        STR       A1, [SP, #8]          ; [DPU_V7M3_PIPE] |804| 
        MOVS      A1, #0                ; [DPU_V7M3_PIPE] |804| 
        STR       A1, [SP, #12]         ; [DPU_V7M3_PIPE] |804| 
        LDRH      A3, [SP, #36]         ; [DPU_V7M3_PIPE] |804| 
        LDR       A2, [SP, #20]         ; [DPU_V7M3_PIPE] |804| 
        LDR       A4, [SP, #24]         ; [DPU_V7M3_PIPE] |804| 
        LDR       A1, [SP, #16]         ; [DPU_V7M3_PIPE] |804| 
$C$DW$70	.dwtag  DW_TAG_TI_branch
	.dwattr $C$DW$70, DW_AT_low_pc(0x00)
	.dwattr $C$DW$70, DW_AT_name("prvInitialiseNewTask")
	.dwattr $C$DW$70, DW_AT_TI_call

        BL        prvInitialiseNewTask  ; [DPU_V7M3_PIPE] |804| 
        ; CALL OCCURS {prvInitialiseNewTask }  ; [] |804| 
	.dwpsn	file "C:/Tools/Thirdparty/FreeRTOSv202112.00/FreeRTOS/Source/tasks.c",line 805,column 13,is_stmt,isa 1
        LDR       A1, [SP, #28]         ; [DPU_V7M3_PIPE] |805| 
$C$DW$71	.dwtag  DW_TAG_TI_branch
	.dwattr $C$DW$71, DW_AT_low_pc(0x00)
	.dwattr $C$DW$71, DW_AT_name("prvAddNewTaskToReadyList")
	.dwattr $C$DW$71, DW_AT_TI_call

        BL        prvAddNewTaskToReadyList ; [DPU_V7M3_PIPE] |805| 
        ; CALL OCCURS {prvAddNewTaskToReadyList }  ; [] |805| 
	.dwpsn	file "C:/Tools/Thirdparty/FreeRTOSv202112.00/FreeRTOS/Source/tasks.c",line 806,column 13,is_stmt,isa 1
        MOVS      A1, #1                ; [DPU_V7M3_PIPE] |806| 
        STR       A1, [SP, #32]         ; [DPU_V7M3_PIPE] |806| 
        B         ||$C$L5||             ; [DPU_V7M3_PIPE] 
        ; BRANCH OCCURS {||$C$L5||}      ; [] 
;* --------------------------------------------------------------------------*
||$C$L4||:    
	.dwpsn	file "C:/Tools/Thirdparty/FreeRTOSv202112.00/FreeRTOS/Source/tasks.c",line 810,column 13,is_stmt,isa 1
        MOV       A1, #-1               ; [DPU_V7M3_PIPE] |810| 
        STR       A1, [SP, #32]         ; [DPU_V7M3_PIPE] |810| 
;* --------------------------------------------------------------------------*
||$C$L5||:    
	.dwpsn	file "C:/Tools/Thirdparty/FreeRTOSv202112.00/FreeRTOS/Source/tasks.c",line 813,column 9,is_stmt,isa 1
        LDR       A1, [SP, #32]         ; [DPU_V7M3_PIPE] |813| 
	.dwpsn	file "C:/Tools/Thirdparty/FreeRTOSv202112.00/FreeRTOS/Source/tasks.c",line 814,column 5,is_stmt,isa 1
        ADD       SP, SP, #44           ; [DPU_V7M3_PIPE] 
	.dwcfi	cfa_offset, 4
$C$DW$72	.dwtag  DW_TAG_TI_branch
	.dwattr $C$DW$72, DW_AT_low_pc(0x00)
	.dwattr $C$DW$72, DW_AT_TI_return

        POP       {PC}                  ; [DPU_V7M3_PIPE] 
	.dwcfi	cfa_offset, 0
        ; BRANCH OCCURS                  ; [] 
	.dwattr $C$DW$52, DW_AT_TI_end_file("C:/Tools/Thirdparty/FreeRTOSv202112.00/FreeRTOS/Source/tasks.c")
	.dwattr $C$DW$52, DW_AT_TI_end_line(0x32e)
	.dwattr $C$DW$52, DW_AT_TI_end_column(0x05)
	.dwendentry
	.dwendtag $C$DW$52

	.sect	".text"
	.clink
	.thumbfunc prvInitialiseNewTask
	.thumb

$C$DW$73	.dwtag  DW_TAG_subprogram
	.dwattr $C$DW$73, DW_AT_name("prvInitialiseNewTask")
	.dwattr $C$DW$73, DW_AT_low_pc(prvInitialiseNewTask)
	.dwattr $C$DW$73, DW_AT_high_pc(0x00)
	.dwattr $C$DW$73, DW_AT_TI_symbol_name("prvInitialiseNewTask")
	.dwattr $C$DW$73, DW_AT_TI_begin_file("C:/Tools/Thirdparty/FreeRTOSv202112.00/FreeRTOS/Source/tasks.c")
	.dwattr $C$DW$73, DW_AT_TI_begin_line(0x333)
	.dwattr $C$DW$73, DW_AT_TI_begin_column(0x0d)
	.dwattr $C$DW$73, DW_AT_decl_file("C:/Tools/Thirdparty/FreeRTOSv202112.00/FreeRTOS/Source/tasks.c")
	.dwattr $C$DW$73, DW_AT_decl_line(0x333)
	.dwattr $C$DW$73, DW_AT_decl_column(0x0d)
	.dwattr $C$DW$73, DW_AT_TI_max_frame_size(0x20)
	.dwpsn	file "C:/Tools/Thirdparty/FreeRTOSv202112.00/FreeRTOS/Source/tasks.c",line 827,column 1,is_stmt,address prvInitialiseNewTask,isa 1

	.dwfde $C$DW$CIE, prvInitialiseNewTask
$C$DW$74	.dwtag  DW_TAG_formal_parameter
	.dwattr $C$DW$74, DW_AT_name("pxTaskCode")
	.dwattr $C$DW$74, DW_AT_TI_symbol_name("pxTaskCode")
	.dwattr $C$DW$74, DW_AT_type(*$C$DW$T$84)
	.dwattr $C$DW$74, DW_AT_location[DW_OP_reg0]

$C$DW$75	.dwtag  DW_TAG_formal_parameter
	.dwattr $C$DW$75, DW_AT_name("pcName")
	.dwattr $C$DW$75, DW_AT_TI_symbol_name("pcName")
	.dwattr $C$DW$75, DW_AT_type(*$C$DW$T$129)
	.dwattr $C$DW$75, DW_AT_location[DW_OP_reg1]

$C$DW$76	.dwtag  DW_TAG_formal_parameter
	.dwattr $C$DW$76, DW_AT_name("ulStackDepth")
	.dwattr $C$DW$76, DW_AT_TI_symbol_name("ulStackDepth")
	.dwattr $C$DW$76, DW_AT_type(*$C$DW$T$130)
	.dwattr $C$DW$76, DW_AT_location[DW_OP_reg2]

$C$DW$77	.dwtag  DW_TAG_formal_parameter
	.dwattr $C$DW$77, DW_AT_name("pvParameters")
	.dwattr $C$DW$77, DW_AT_TI_symbol_name("pvParameters")
	.dwattr $C$DW$77, DW_AT_type(*$C$DW$T$115)
	.dwattr $C$DW$77, DW_AT_location[DW_OP_reg3]

$C$DW$78	.dwtag  DW_TAG_formal_parameter
	.dwattr $C$DW$78, DW_AT_name("uxPriority")
	.dwattr $C$DW$78, DW_AT_TI_symbol_name("uxPriority")
	.dwattr $C$DW$78, DW_AT_type(*$C$DW$T$27)
	.dwattr $C$DW$78, DW_AT_location[DW_OP_breg13 32]

$C$DW$79	.dwtag  DW_TAG_formal_parameter
	.dwattr $C$DW$79, DW_AT_name("pxCreatedTask")
	.dwattr $C$DW$79, DW_AT_TI_symbol_name("pxCreatedTask")
	.dwattr $C$DW$79, DW_AT_type(*$C$DW$T$132)
	.dwattr $C$DW$79, DW_AT_location[DW_OP_breg13 36]

$C$DW$80	.dwtag  DW_TAG_formal_parameter
	.dwattr $C$DW$80, DW_AT_name("pxNewTCB")
	.dwattr $C$DW$80, DW_AT_TI_symbol_name("pxNewTCB")
	.dwattr $C$DW$80, DW_AT_type(*$C$DW$T$135)
	.dwattr $C$DW$80, DW_AT_location[DW_OP_breg13 40]

$C$DW$81	.dwtag  DW_TAG_formal_parameter
	.dwattr $C$DW$81, DW_AT_name("xRegions")
	.dwattr $C$DW$81, DW_AT_TI_symbol_name("xRegions")
	.dwattr $C$DW$81, DW_AT_type(*$C$DW$T$138)
	.dwattr $C$DW$81, DW_AT_location[DW_OP_breg13 44]


;*****************************************************************************
;* FUNCTION NAME: prvInitialiseNewTask                                       *
;*                                                                           *
;*   Regs Modified     : A1,A2,A3,A4,V9,SP,LR,SR,D0,D0_hi,D1,D1_hi,D2,D2_hi, *
;*                           D3,D3_hi,D4,D4_hi,D5,D5_hi,D6,D6_hi,D7,D7_hi,   *
;*                           FPEXC,FPSCR                                     *
;*   Regs Used         : A1,A2,A3,A4,V9,SP,LR,SR,D0,D0_hi,D1,D1_hi,D2,D2_hi, *
;*                           D3,D3_hi,D4,D4_hi,D5,D5_hi,D6,D6_hi,D7,D7_hi,   *
;*                           FPEXC,FPSCR                                     *
;*   Local Frame Size  : 0 Args + 24 Auto + 4 Save = 28 byte                 *
;*****************************************************************************
prvInitialiseNewTask:
;* --------------------------------------------------------------------------*
	.dwcfi	cfa_offset, 0
        PUSH      {LR}                  ; [DPU_V7M3_PIPE] 
	.dwcfi	cfa_offset, 4
	.dwcfi	save_reg_to_mem, 14, -4
        SUB       SP, SP, #28           ; [DPU_V7M3_PIPE] 
	.dwcfi	cfa_offset, 32
$C$DW$82	.dwtag  DW_TAG_variable
	.dwattr $C$DW$82, DW_AT_name("pxTaskCode")
	.dwattr $C$DW$82, DW_AT_TI_symbol_name("pxTaskCode")
	.dwattr $C$DW$82, DW_AT_type(*$C$DW$T$84)
	.dwattr $C$DW$82, DW_AT_location[DW_OP_breg13 0]

$C$DW$83	.dwtag  DW_TAG_variable
	.dwattr $C$DW$83, DW_AT_name("pcName")
	.dwattr $C$DW$83, DW_AT_TI_symbol_name("pcName")
	.dwattr $C$DW$83, DW_AT_type(*$C$DW$T$129)
	.dwattr $C$DW$83, DW_AT_location[DW_OP_breg13 4]

$C$DW$84	.dwtag  DW_TAG_variable
	.dwattr $C$DW$84, DW_AT_name("ulStackDepth")
	.dwattr $C$DW$84, DW_AT_TI_symbol_name("ulStackDepth")
	.dwattr $C$DW$84, DW_AT_type(*$C$DW$T$130)
	.dwattr $C$DW$84, DW_AT_location[DW_OP_breg13 8]

$C$DW$85	.dwtag  DW_TAG_variable
	.dwattr $C$DW$85, DW_AT_name("pvParameters")
	.dwattr $C$DW$85, DW_AT_TI_symbol_name("pvParameters")
	.dwattr $C$DW$85, DW_AT_type(*$C$DW$T$115)
	.dwattr $C$DW$85, DW_AT_location[DW_OP_breg13 12]

$C$DW$86	.dwtag  DW_TAG_variable
	.dwattr $C$DW$86, DW_AT_name("pxTopOfStack")
	.dwattr $C$DW$86, DW_AT_TI_symbol_name("pxTopOfStack")
	.dwattr $C$DW$86, DW_AT_type(*$C$DW$T$41)
	.dwattr $C$DW$86, DW_AT_location[DW_OP_breg13 16]

$C$DW$87	.dwtag  DW_TAG_variable
	.dwattr $C$DW$87, DW_AT_name("x")
	.dwattr $C$DW$87, DW_AT_TI_symbol_name("x")
	.dwattr $C$DW$87, DW_AT_type(*$C$DW$T$27)
	.dwattr $C$DW$87, DW_AT_location[DW_OP_breg13 20]

        STR       A4, [SP, #12]         ; [DPU_V7M3_PIPE] |827| 
        STR       A3, [SP, #8]          ; [DPU_V7M3_PIPE] |827| 
        STR       A2, [SP, #4]          ; [DPU_V7M3_PIPE] |827| 
        STR       A1, [SP, #0]          ; [DPU_V7M3_PIPE] |827| 
	.dwpsn	file "C:/Tools/Thirdparty/FreeRTOSv202112.00/FreeRTOS/Source/tasks.c",line 850,column 13,is_stmt,isa 1
        LDR       A1, [SP, #40]         ; [DPU_V7M3_PIPE] |850| 
        LDR       A2, [SP, #8]          ; [DPU_V7M3_PIPE] |850| 
        LDR       A1, [A1, #48]         ; [DPU_V7M3_PIPE] |850| 
        LSLS      A3, A2, #2            ; [DPU_V7M3_PIPE] |850| 
        MOVS      A2, #165              ; [DPU_V7M3_PIPE] |850| 
$C$DW$88	.dwtag  DW_TAG_TI_branch
	.dwattr $C$DW$88, DW_AT_low_pc(0x00)
	.dwattr $C$DW$88, DW_AT_name("memset")
	.dwattr $C$DW$88, DW_AT_TI_call

        BL        memset                ; [DPU_V7M3_PIPE] |850| 
        ; CALL OCCURS {memset }          ; [] |850| 
	.dwpsn	file "C:/Tools/Thirdparty/FreeRTOSv202112.00/FreeRTOS/Source/tasks.c",line 860,column 13,is_stmt,isa 1
        LDR       A2, [SP, #40]         ; [DPU_V7M3_PIPE] |860| 
        LDR       A1, [SP, #8]          ; [DPU_V7M3_PIPE] |860| 
        LDR       A2, [A2, #48]         ; [DPU_V7M3_PIPE] |860| 
        SUBS      A1, A1, #1            ; [DPU_V7M3_PIPE] |860| 
        ADD       A2, A2, A1, LSL #2    ; [DPU_V7M3_PIPE] |860| 
        STR       A2, [SP, #16]         ; [DPU_V7M3_PIPE] |860| 
	.dwpsn	file "C:/Tools/Thirdparty/FreeRTOSv202112.00/FreeRTOS/Source/tasks.c",line 861,column 13,is_stmt,isa 1
        LDR       A1, [SP, #16]         ; [DPU_V7M3_PIPE] |861| 
        BIC       A1, A1, #7            ; [DPU_V7M3_PIPE] |861| 
        STR       A1, [SP, #16]         ; [DPU_V7M3_PIPE] |861| 
	.dwpsn	file "C:/Tools/Thirdparty/FreeRTOSv202112.00/FreeRTOS/Source/tasks.c",line 888,column 5,is_stmt,isa 1
        LDR       A1, [SP, #4]          ; [DPU_V7M3_PIPE] |888| 
        CBZ       A1, ||$C$L8||         ; [] 
        ; BRANCHCC OCCURS {||$C$L8||}    ; [] |888| 
;* --------------------------------------------------------------------------*
	.dwpsn	file "C:/Tools/Thirdparty/FreeRTOSv202112.00/FreeRTOS/Source/tasks.c",line 890,column 14,is_stmt,isa 1
        MOVS      A1, #0                ; [DPU_V7M3_PIPE] |890| 
        STR       A1, [SP, #20]         ; [DPU_V7M3_PIPE] |890| 
	.dwpsn	file "C:/Tools/Thirdparty/FreeRTOSv202112.00/FreeRTOS/Source/tasks.c",line 890,column 37,is_stmt,isa 1
        LDR       A1, [SP, #20]         ; [DPU_V7M3_PIPE] |890| 
        CMP       A1, #24               ; [DPU_V7M3_PIPE] |890| 
        BCS       ||$C$L7||             ; [DPU_V7M3_PIPE] |890| 
        ; BRANCHCC OCCURS {||$C$L7||}    ; [] |890| 
;* --------------------------------------------------------------------------*
;*   BEGIN LOOP ||$C$L6||
;*
;*   Loop source line                : 890
;*   Loop closing brace source line  : 905
;*   Known Minimum Trip Count        : 1
;*   Known Maximum Trip Count        : 4294967295
;*   Known Max Trip Count Factor     : 1
;* --------------------------------------------------------------------------*
||$C$L6||:    
	.dwpsn	file "C:/Tools/Thirdparty/FreeRTOSv202112.00/FreeRTOS/Source/tasks.c",line 892,column 13,is_stmt,isa 1
        LDR       A2, [SP, #4]          ; [DPU_V7M3_PIPE] |892| 
        LDR       A4, [SP, #20]         ; [DPU_V7M3_PIPE] |892| 
        LDR       A3, [SP, #20]         ; [DPU_V7M3_PIPE] |892| 
        LDR       A1, [SP, #40]         ; [DPU_V7M3_PIPE] |892| 
        LDRB      A2, [A4, +A2]         ; [DPU_V7M3_PIPE] |892| 
        ADDS      A1, A1, A3            ; [DPU_V7M3_PIPE] |892| 
        STRB      A2, [A1, #52]         ; [DPU_V7M3_PIPE] |892| 
	.dwpsn	file "C:/Tools/Thirdparty/FreeRTOSv202112.00/FreeRTOS/Source/tasks.c",line 897,column 13,is_stmt,isa 1
        LDR       A1, [SP, #4]          ; [DPU_V7M3_PIPE] |897| 
        LDR       A2, [SP, #20]         ; [DPU_V7M3_PIPE] |897| 
        LDRB      A1, [A2, +A1]         ; [DPU_V7M3_PIPE] |897| 
        CBZ       A1, ||$C$L7||         ; [] 
        ; BRANCHCC OCCURS {||$C$L7||}    ; [] |897| 
;* --------------------------------------------------------------------------*
	.dwpsn	file "C:/Tools/Thirdparty/FreeRTOSv202112.00/FreeRTOS/Source/tasks.c",line 899,column 17,is_stmt,isa 1
	.dwpsn	file "C:/Tools/Thirdparty/FreeRTOSv202112.00/FreeRTOS/Source/tasks.c",line 890,column 82,is_stmt,isa 1
        LDR       A1, [SP, #20]         ; [DPU_V7M3_PIPE] |890| 
        ADDS      A1, A1, #1            ; [DPU_V7M3_PIPE] |890| 
        STR       A1, [SP, #20]         ; [DPU_V7M3_PIPE] |890| 
	.dwpsn	file "C:/Tools/Thirdparty/FreeRTOSv202112.00/FreeRTOS/Source/tasks.c",line 890,column 37,is_stmt,isa 1
        LDR       A1, [SP, #20]         ; [DPU_V7M3_PIPE] |890| 
        CMP       A1, #24               ; [DPU_V7M3_PIPE] |890| 
        BCC       ||$C$L6||             ; [DPU_V7M3_PIPE] |890| 
        ; BRANCHCC OCCURS {||$C$L6||}    ; [] |890| 
;* --------------------------------------------------------------------------*
||$C$L7||:    
	.dwpsn	file "C:/Tools/Thirdparty/FreeRTOSv202112.00/FreeRTOS/Source/tasks.c",line 909,column 9,is_stmt,isa 1
        LDR       A2, [SP, #40]         ; [DPU_V7M3_PIPE] |909| 
        MOVS      A1, #0                ; [DPU_V7M3_PIPE] |909| 
        STRB      A1, [A2, #75]         ; [DPU_V7M3_PIPE] |909| 
        B         ||$C$L9||             ; [DPU_V7M3_PIPE] 
        ; BRANCH OCCURS {||$C$L9||}      ; [] 
;* --------------------------------------------------------------------------*
||$C$L8||:    
	.dwpsn	file "C:/Tools/Thirdparty/FreeRTOSv202112.00/FreeRTOS/Source/tasks.c",line 915,column 9,is_stmt,isa 1
        LDR       A2, [SP, #40]         ; [DPU_V7M3_PIPE] |915| 
        MOVS      A1, #0                ; [DPU_V7M3_PIPE] |915| 
        STRB      A1, [A2, #52]         ; [DPU_V7M3_PIPE] |915| 
;* --------------------------------------------------------------------------*
||$C$L9||:    
	.dwpsn	file "C:/Tools/Thirdparty/FreeRTOSv202112.00/FreeRTOS/Source/tasks.c",line 921,column 5,is_stmt,isa 1
        LDR       A1, [SP, #32]         ; [DPU_V7M3_PIPE] |921| 
        CMP       A1, #5                ; [DPU_V7M3_PIPE] |921| 
        BCC       ||$C$L10||            ; [DPU_V7M3_PIPE] |921| 
        ; BRANCHCC OCCURS {||$C$L10||}   ; [] |921| 
;* --------------------------------------------------------------------------*
	.dwpsn	file "C:/Tools/Thirdparty/FreeRTOSv202112.00/FreeRTOS/Source/tasks.c",line 923,column 9,is_stmt,isa 1
        MOVS      A1, #4                ; [DPU_V7M3_PIPE] |923| 
        STR       A1, [SP, #32]         ; [DPU_V7M3_PIPE] |923| 
;* --------------------------------------------------------------------------*
||$C$L10||:    
	.dwpsn	file "C:/Tools/Thirdparty/FreeRTOSv202112.00/FreeRTOS/Source/tasks.c",line 930,column 5,is_stmt,isa 1
        LDR       A1, [SP, #32]         ; [DPU_V7M3_PIPE] |930| 
        LDR       A2, [SP, #40]         ; [DPU_V7M3_PIPE] |930| 
        STR       A1, [A2, #44]         ; [DPU_V7M3_PIPE] |930| 
	.dwpsn	file "C:/Tools/Thirdparty/FreeRTOSv202112.00/FreeRTOS/Source/tasks.c",line 933,column 13,is_stmt,isa 1
        LDR       A1, [SP, #32]         ; [DPU_V7M3_PIPE] |933| 
        LDR       A2, [SP, #40]         ; [DPU_V7M3_PIPE] |933| 
        STR       A1, [A2, #84]         ; [DPU_V7M3_PIPE] |933| 
	.dwpsn	file "C:/Tools/Thirdparty/FreeRTOSv202112.00/FreeRTOS/Source/tasks.c",line 934,column 13,is_stmt,isa 1
        LDR       A1, [SP, #40]         ; [DPU_V7M3_PIPE] |934| 
        MOVS      A2, #0                ; [DPU_V7M3_PIPE] |934| 
        STR       A2, [A1, #88]         ; [DPU_V7M3_PIPE] |934| 
	.dwpsn	file "C:/Tools/Thirdparty/FreeRTOSv202112.00/FreeRTOS/Source/tasks.c",line 938,column 5,is_stmt,isa 1
        LDR       A1, [SP, #40]         ; [DPU_V7M3_PIPE] |938| 
        ADDS      A1, A1, #4            ; [DPU_V7M3_PIPE] |938| 
$C$DW$89	.dwtag  DW_TAG_TI_branch
	.dwattr $C$DW$89, DW_AT_low_pc(0x00)
	.dwattr $C$DW$89, DW_AT_name("vListInitialiseItem")
	.dwattr $C$DW$89, DW_AT_TI_call

        BL        vListInitialiseItem   ; [DPU_V7M3_PIPE] |938| 
        ; CALL OCCURS {vListInitialiseItem }  ; [] |938| 
	.dwpsn	file "C:/Tools/Thirdparty/FreeRTOSv202112.00/FreeRTOS/Source/tasks.c",line 939,column 5,is_stmt,isa 1
        LDR       A1, [SP, #40]         ; [DPU_V7M3_PIPE] |939| 
        ADDS      A1, A1, #24           ; [DPU_V7M3_PIPE] |939| 
$C$DW$90	.dwtag  DW_TAG_TI_branch
	.dwattr $C$DW$90, DW_AT_low_pc(0x00)
	.dwattr $C$DW$90, DW_AT_name("vListInitialiseItem")
	.dwattr $C$DW$90, DW_AT_TI_call

        BL        vListInitialiseItem   ; [DPU_V7M3_PIPE] |939| 
        ; CALL OCCURS {vListInitialiseItem }  ; [] |939| 
	.dwpsn	file "C:/Tools/Thirdparty/FreeRTOSv202112.00/FreeRTOS/Source/tasks.c",line 943,column 5,is_stmt,isa 1
        LDR       A1, [SP, #40]         ; [DPU_V7M3_PIPE] |943| 
        LDR       A2, [SP, #40]         ; [DPU_V7M3_PIPE] |943| 
        STR       A1, [A2, #16]         ; [DPU_V7M3_PIPE] |943| 
	.dwpsn	file "C:/Tools/Thirdparty/FreeRTOSv202112.00/FreeRTOS/Source/tasks.c",line 946,column 5,is_stmt,isa 1
        LDR       A1, [SP, #32]         ; [DPU_V7M3_PIPE] |946| 
        LDR       A2, [SP, #40]         ; [DPU_V7M3_PIPE] |946| 
        RSB       A1, A1, #5            ; [DPU_V7M3_PIPE] |946| 
        STR       A1, [A2, #24]         ; [DPU_V7M3_PIPE] |946| 
	.dwpsn	file "C:/Tools/Thirdparty/FreeRTOSv202112.00/FreeRTOS/Source/tasks.c",line 947,column 5,is_stmt,isa 1
        LDR       A1, [SP, #40]         ; [DPU_V7M3_PIPE] |947| 
        LDR       A2, [SP, #40]         ; [DPU_V7M3_PIPE] |947| 
        STR       A1, [A2, #36]         ; [DPU_V7M3_PIPE] |947| 
	.dwpsn	file "C:/Tools/Thirdparty/FreeRTOSv202112.00/FreeRTOS/Source/tasks.c",line 974,column 13,is_stmt,isa 1
	.dwpsn	file "C:/Tools/Thirdparty/FreeRTOSv202112.00/FreeRTOS/Source/tasks.c",line 986,column 13,is_stmt,isa 1
        LDR       A1, [SP, #40]         ; [DPU_V7M3_PIPE] |986| 
        MOVS      A3, #4                ; [DPU_V7M3_PIPE] |986| 
        MOVS      A2, #0                ; [DPU_V7M3_PIPE] |986| 
        ADDS      A1, A1, #92           ; [DPU_V7M3_PIPE] |986| 
$C$DW$91	.dwtag  DW_TAG_TI_branch
	.dwattr $C$DW$91, DW_AT_low_pc(0x00)
	.dwattr $C$DW$91, DW_AT_name("memset")
	.dwattr $C$DW$91, DW_AT_TI_call

        BL        memset                ; [DPU_V7M3_PIPE] |986| 
        ; CALL OCCURS {memset }          ; [] |986| 
	.dwpsn	file "C:/Tools/Thirdparty/FreeRTOSv202112.00/FreeRTOS/Source/tasks.c",line 987,column 13,is_stmt,isa 1
        LDR       A1, [SP, #40]         ; [DPU_V7M3_PIPE] |987| 
        MOVS      A2, #0                ; [DPU_V7M3_PIPE] |987| 
        MOVS      A3, #1                ; [DPU_V7M3_PIPE] |987| 
        ADDS      A1, A1, #96           ; [DPU_V7M3_PIPE] |987| 
$C$DW$92	.dwtag  DW_TAG_TI_branch
	.dwattr $C$DW$92, DW_AT_low_pc(0x00)
	.dwattr $C$DW$92, DW_AT_name("memset")
	.dwattr $C$DW$92, DW_AT_TI_call

        BL        memset                ; [DPU_V7M3_PIPE] |987| 
        ; CALL OCCURS {memset }          ; [] |987| 
	.dwpsn	file "C:/Tools/Thirdparty/FreeRTOSv202112.00/FreeRTOS/Source/tasks.c",line 1052,column 21,is_stmt,isa 1
        LDR       A1, [SP, #16]         ; [DPU_V7M3_PIPE] |1052| 
        LDR       A2, [SP, #0]          ; [DPU_V7M3_PIPE] |1052| 
        LDR       A3, [SP, #12]         ; [DPU_V7M3_PIPE] |1052| 
$C$DW$93	.dwtag  DW_TAG_TI_branch
	.dwattr $C$DW$93, DW_AT_low_pc(0x00)
	.dwattr $C$DW$93, DW_AT_name("pxPortInitialiseStack")
	.dwattr $C$DW$93, DW_AT_TI_call

        BL        pxPortInitialiseStack ; [DPU_V7M3_PIPE] |1052| 
        ; CALL OCCURS {pxPortInitialiseStack }  ; [] |1052| 
        LDR       A2, [SP, #40]         ; [DPU_V7M3_PIPE] |1052| 
        STR       A1, [A2, #0]          ; [DPU_V7M3_PIPE] |1052| 
	.dwpsn	file "C:/Tools/Thirdparty/FreeRTOSv202112.00/FreeRTOS/Source/tasks.c",line 1058,column 5,is_stmt,isa 1
        LDR       A1, [SP, #36]         ; [DPU_V7M3_PIPE] |1058| 
        CBZ       A1, ||$C$L11||        ; [] 
        ; BRANCHCC OCCURS {||$C$L11||}   ; [] |1058| 
;* --------------------------------------------------------------------------*
	.dwpsn	file "C:/Tools/Thirdparty/FreeRTOSv202112.00/FreeRTOS/Source/tasks.c",line 1062,column 9,is_stmt,isa 1
        LDR       A1, [SP, #40]         ; [DPU_V7M3_PIPE] |1062| 
        LDR       A2, [SP, #36]         ; [DPU_V7M3_PIPE] |1062| 
        STR       A1, [A2, #0]          ; [DPU_V7M3_PIPE] |1062| 
        B         ||$C$L11||            ; [DPU_V7M3_PIPE] 
        ; BRANCH OCCURS {||$C$L11||}     ; [] 
;* --------------------------------------------------------------------------*
;* --------------------------------------------------------------------------*
||$C$L11||:    
        ADD       SP, SP, #28           ; [DPU_V7M3_PIPE] 
	.dwcfi	cfa_offset, 4
$C$DW$94	.dwtag  DW_TAG_TI_branch
	.dwattr $C$DW$94, DW_AT_low_pc(0x00)
	.dwattr $C$DW$94, DW_AT_TI_return

        POP       {PC}                  ; [DPU_V7M3_PIPE] 
	.dwcfi	cfa_offset, 0
        ; BRANCH OCCURS                  ; [] 
	.dwattr $C$DW$73, DW_AT_TI_end_file("C:/Tools/Thirdparty/FreeRTOSv202112.00/FreeRTOS/Source/tasks.c")
	.dwattr $C$DW$73, DW_AT_TI_end_line(0x42c)
	.dwattr $C$DW$73, DW_AT_TI_end_column(0x01)
	.dwendentry
	.dwendtag $C$DW$73

	.sect	".text"
	.clink
	.thumbfunc prvAddNewTaskToReadyList
	.thumb

$C$DW$95	.dwtag  DW_TAG_subprogram
	.dwattr $C$DW$95, DW_AT_name("prvAddNewTaskToReadyList")
	.dwattr $C$DW$95, DW_AT_low_pc(prvAddNewTaskToReadyList)
	.dwattr $C$DW$95, DW_AT_high_pc(0x00)
	.dwattr $C$DW$95, DW_AT_TI_symbol_name("prvAddNewTaskToReadyList")
	.dwattr $C$DW$95, DW_AT_TI_begin_file("C:/Tools/Thirdparty/FreeRTOSv202112.00/FreeRTOS/Source/tasks.c")
	.dwattr $C$DW$95, DW_AT_TI_begin_line(0x42f)
	.dwattr $C$DW$95, DW_AT_TI_begin_column(0x0d)
	.dwattr $C$DW$95, DW_AT_decl_file("C:/Tools/Thirdparty/FreeRTOSv202112.00/FreeRTOS/Source/tasks.c")
	.dwattr $C$DW$95, DW_AT_decl_line(0x42f)
	.dwattr $C$DW$95, DW_AT_decl_column(0x0d)
	.dwattr $C$DW$95, DW_AT_TI_max_frame_size(0x10)
	.dwpsn	file "C:/Tools/Thirdparty/FreeRTOSv202112.00/FreeRTOS/Source/tasks.c",line 1072,column 1,is_stmt,address prvAddNewTaskToReadyList,isa 1

	.dwfde $C$DW$CIE, prvAddNewTaskToReadyList
$C$DW$96	.dwtag  DW_TAG_formal_parameter
	.dwattr $C$DW$96, DW_AT_name("pxNewTCB")
	.dwattr $C$DW$96, DW_AT_TI_symbol_name("pxNewTCB")
	.dwattr $C$DW$96, DW_AT_type(*$C$DW$T$135)
	.dwattr $C$DW$96, DW_AT_location[DW_OP_reg0]


;*****************************************************************************
;* FUNCTION NAME: prvAddNewTaskToReadyList                                   *
;*                                                                           *
;*   Regs Modified     : A1,A2,A3,A4,V9,SP,LR,SR,D0,D0_hi,D1,D1_hi,D2,D2_hi, *
;*                           D3,D3_hi,D4,D4_hi,D5,D5_hi,D6,D6_hi,D7,D7_hi,   *
;*                           FPEXC,FPSCR                                     *
;*   Regs Used         : A1,A2,A3,A4,V9,SP,LR,SR,D0,D0_hi,D1,D1_hi,D2,D2_hi, *
;*                           D3,D3_hi,D4,D4_hi,D5,D5_hi,D6,D6_hi,D7,D7_hi,   *
;*                           FPEXC,FPSCR                                     *
;*   Local Frame Size  : 0 Args + 8 Auto + 4 Save = 12 byte                  *
;*****************************************************************************
prvAddNewTaskToReadyList:
;* --------------------------------------------------------------------------*
	.dwcfi	cfa_offset, 0
        PUSH      {A2, A3, A4, LR}      ; [DPU_V7M3_PIPE] 
	.dwcfi	cfa_offset, 16
	.dwcfi	save_reg_to_mem, 14, -4
	.dwcfi	save_reg_to_mem, 3, -8
	.dwcfi	save_reg_to_mem, 2, -12
	.dwcfi	save_reg_to_mem, 1, -16
$C$DW$97	.dwtag  DW_TAG_variable
	.dwattr $C$DW$97, DW_AT_name("pxNewTCB")
	.dwattr $C$DW$97, DW_AT_TI_symbol_name("pxNewTCB")
	.dwattr $C$DW$97, DW_AT_type(*$C$DW$T$135)
	.dwattr $C$DW$97, DW_AT_location[DW_OP_breg13 0]

        STR       A1, [SP, #0]          ; [DPU_V7M3_PIPE] |1072| 
	.dwpsn	file "C:/Tools/Thirdparty/FreeRTOSv202112.00/FreeRTOS/Source/tasks.c",line 1075,column 5,is_stmt,isa 1
$C$DW$98	.dwtag  DW_TAG_TI_branch
	.dwattr $C$DW$98, DW_AT_low_pc(0x00)
	.dwattr $C$DW$98, DW_AT_name("vPortEnterCritical")
	.dwattr $C$DW$98, DW_AT_TI_call

        BL        vPortEnterCritical    ; [DPU_V7M3_PIPE] |1075| 
        ; CALL OCCURS {vPortEnterCritical }  ; [] |1075| 

$C$DW$99	.dwtag  DW_TAG_lexical_block
	.dwattr $C$DW$99, DW_AT_low_pc(0x00)
	.dwattr $C$DW$99, DW_AT_high_pc(0x00)
	.dwpsn	file "C:/Tools/Thirdparty/FreeRTOSv202112.00/FreeRTOS/Source/tasks.c",line 1077,column 9,is_stmt,isa 1
        LDR       A2, $C$CON1           ; [DPU_V7M3_PIPE] |1077| 
        LDR       A1, [A2, #0]          ; [DPU_V7M3_PIPE] |1077| 
        ADDS      A1, A1, #1            ; [DPU_V7M3_PIPE] |1077| 
        STR       A1, [A2, #0]          ; [DPU_V7M3_PIPE] |1077| 
	.dwpsn	file "C:/Tools/Thirdparty/FreeRTOSv202112.00/FreeRTOS/Source/tasks.c",line 1079,column 9,is_stmt,isa 1
        LDR       A1, $C$CON2           ; [DPU_V7M3_PIPE] |1079| 
        LDR       A1, [A1, #0]          ; [DPU_V7M3_PIPE] |1079| 
        CBNZ      A1, ||$C$L12||        ; [] 
        ; BRANCHCC OCCURS {||$C$L12||}   ; [] |1079| 
;* --------------------------------------------------------------------------*
	.dwpsn	file "C:/Tools/Thirdparty/FreeRTOSv202112.00/FreeRTOS/Source/tasks.c",line 1083,column 13,is_stmt,isa 1
        LDR       A1, [SP, #0]          ; [DPU_V7M3_PIPE] |1083| 
        LDR       A2, $C$CON2           ; [DPU_V7M3_PIPE] |1083| 
        STR       A1, [A2, #0]          ; [DPU_V7M3_PIPE] |1083| 
	.dwpsn	file "C:/Tools/Thirdparty/FreeRTOSv202112.00/FreeRTOS/Source/tasks.c",line 1085,column 13,is_stmt,isa 1
        LDR       A1, $C$CON1           ; [DPU_V7M3_PIPE] |1085| 
        LDR       A1, [A1, #0]          ; [DPU_V7M3_PIPE] |1085| 
        CMP       A1, #1                ; [DPU_V7M3_PIPE] |1085| 
        BNE       ||$C$L13||            ; [DPU_V7M3_PIPE] |1085| 
        ; BRANCHCC OCCURS {||$C$L13||}   ; [] |1085| 
;* --------------------------------------------------------------------------*
	.dwpsn	file "C:/Tools/Thirdparty/FreeRTOSv202112.00/FreeRTOS/Source/tasks.c",line 1090,column 17,is_stmt,isa 1
$C$DW$100	.dwtag  DW_TAG_TI_branch
	.dwattr $C$DW$100, DW_AT_low_pc(0x00)
	.dwattr $C$DW$100, DW_AT_name("prvInitialiseTaskLists")
	.dwattr $C$DW$100, DW_AT_TI_call

        BL        prvInitialiseTaskLists ; [DPU_V7M3_PIPE] |1090| 
        ; CALL OCCURS {prvInitialiseTaskLists }  ; [] |1090| 
        B         ||$C$L13||            ; [DPU_V7M3_PIPE] 
        ; BRANCH OCCURS {||$C$L13||}     ; [] 
;* --------------------------------------------------------------------------*
||$C$L12||:    
	.dwpsn	file "C:/Tools/Thirdparty/FreeRTOSv202112.00/FreeRTOS/Source/tasks.c",line 1102,column 13,is_stmt,isa 1
        LDR       A1, $C$CON3           ; [DPU_V7M3_PIPE] |1102| 
        LDR       A1, [A1, #0]          ; [DPU_V7M3_PIPE] |1102| 
        CBNZ      A1, ||$C$L13||        ; [] 
        ; BRANCHCC OCCURS {||$C$L13||}   ; [] |1102| 
;* --------------------------------------------------------------------------*
	.dwpsn	file "C:/Tools/Thirdparty/FreeRTOSv202112.00/FreeRTOS/Source/tasks.c",line 1104,column 17,is_stmt,isa 1
        LDR       A2, $C$CON2           ; [DPU_V7M3_PIPE] |1104| 
        LDR       A1, [SP, #0]          ; [DPU_V7M3_PIPE] |1104| 
        LDR       A2, [A2, #0]          ; [DPU_V7M3_PIPE] |1104| 
        LDR       A1, [A1, #44]         ; [DPU_V7M3_PIPE] |1104| 
        LDR       A2, [A2, #44]         ; [DPU_V7M3_PIPE] |1104| 
        CMP       A1, A2                ; [DPU_V7M3_PIPE] |1104| 
        BCC       ||$C$L13||            ; [DPU_V7M3_PIPE] |1104| 
        ; BRANCHCC OCCURS {||$C$L13||}   ; [] |1104| 
;* --------------------------------------------------------------------------*
	.dwpsn	file "C:/Tools/Thirdparty/FreeRTOSv202112.00/FreeRTOS/Source/tasks.c",line 1106,column 21,is_stmt,isa 1
        LDR       A1, [SP, #0]          ; [DPU_V7M3_PIPE] |1106| 
        LDR       A2, $C$CON2           ; [DPU_V7M3_PIPE] |1106| 
        STR       A1, [A2, #0]          ; [DPU_V7M3_PIPE] |1106| 
;* --------------------------------------------------------------------------*
||$C$L13||:    
	.dwpsn	file "C:/Tools/Thirdparty/FreeRTOSv202112.00/FreeRTOS/Source/tasks.c",line 1119,column 9,is_stmt,isa 1
        LDR       A2, $C$CON4           ; [DPU_V7M3_PIPE] |1119| 
        LDR       A1, [A2, #0]          ; [DPU_V7M3_PIPE] |1119| 
        ADDS      A1, A1, #1            ; [DPU_V7M3_PIPE] |1119| 
        STR       A1, [A2, #0]          ; [DPU_V7M3_PIPE] |1119| 
	.dwpsn	file "C:/Tools/Thirdparty/FreeRTOSv202112.00/FreeRTOS/Source/tasks.c",line 1124,column 17,is_stmt,isa 1
        LDR       A1, $C$CON4           ; [DPU_V7M3_PIPE] |1124| 
        LDR       A2, [SP, #0]          ; [DPU_V7M3_PIPE] |1124| 
        LDR       A1, [A1, #0]          ; [DPU_V7M3_PIPE] |1124| 
        STR       A1, [A2, #76]         ; [DPU_V7M3_PIPE] |1124| 
	.dwpsn	file "C:/Tools/Thirdparty/FreeRTOSv202112.00/FreeRTOS/Source/tasks.c",line 1129,column 9,is_stmt,isa 1
        LDR       A2, $C$CON5           ; [DPU_V7M3_PIPE] |1129| 
        LDR       A1, [SP, #0]          ; [DPU_V7M3_PIPE] |1129| 
        LDR       A3, [A2, #0]          ; [DPU_V7M3_PIPE] |1129| 
        LDR       A4, [A1, #44]         ; [DPU_V7M3_PIPE] |1129| 
        MOVS      A1, #1                ; [DPU_V7M3_PIPE] |1129| 
        LSLS      A1, A1, A4            ; [DPU_V7M3_PIPE] |1129| 
        ORRS      A1, A1, A3            ; [DPU_V7M3_PIPE] |1129| 
        STR       A1, [A2, #0]          ; [DPU_V7M3_PIPE] |1129| 

$C$DW$101	.dwtag  DW_TAG_lexical_block
	.dwattr $C$DW$101, DW_AT_low_pc(0x00)
	.dwattr $C$DW$101, DW_AT_high_pc(0x00)
$C$DW$102	.dwtag  DW_TAG_variable
	.dwattr $C$DW$102, DW_AT_name("pxIndex")
	.dwattr $C$DW$102, DW_AT_TI_symbol_name("pxIndex")
	.dwattr $C$DW$102, DW_AT_type(*$C$DW$T$124)
	.dwattr $C$DW$102, DW_AT_location[DW_OP_breg13 4]

        LDR       A1, [SP, #0]          ; [DPU_V7M3_PIPE] |1129| 
        LDR       A2, $C$CON6           ; [DPU_V7M3_PIPE] |1129| 
        LDR       A3, [A1, #44]         ; [DPU_V7M3_PIPE] |1129| 
        LSLS      A1, A3, #2            ; [DPU_V7M3_PIPE] |1129| 
        ADD       A1, A1, A3, LSL #4    ; [DPU_V7M3_PIPE] |1129| 
        LDR       A1, [A2, +A1]         ; [DPU_V7M3_PIPE] |1129| 
        LDR       A2, [SP, #0]          ; [DPU_V7M3_PIPE] |1129| 
        STR       A1, [SP, #4]          ; [DPU_V7M3_PIPE] |1129| 
        LDR       A1, [SP, #4]          ; [DPU_V7M3_PIPE] |1129| 
        STR       A1, [A2, #8]          ; [DPU_V7M3_PIPE] |1129| 
        LDR       A1, [SP, #4]          ; [DPU_V7M3_PIPE] |1129| 
        LDR       A2, [SP, #0]          ; [DPU_V7M3_PIPE] |1129| 
        LDR       A1, [A1, #8]          ; [DPU_V7M3_PIPE] |1129| 
        STR       A1, [A2, #12]         ; [DPU_V7M3_PIPE] |1129| 
        LDR       A1, [SP, #0]          ; [DPU_V7M3_PIPE] |1129| 
        LDR       A2, [SP, #4]          ; [DPU_V7M3_PIPE] |1129| 
        ADDS      A1, A1, #4            ; [DPU_V7M3_PIPE] |1129| 
        LDR       A2, [A2, #8]          ; [DPU_V7M3_PIPE] |1129| 
        LDR       A3, $C$CON7           ; [DPU_V7M3_PIPE] |1129| 
        STR       A1, [A2, #4]          ; [DPU_V7M3_PIPE] |1129| 
        LDR       A1, [SP, #0]          ; [DPU_V7M3_PIPE] |1129| 
        LDR       A2, [SP, #4]          ; [DPU_V7M3_PIPE] |1129| 
        ADDS      A1, A1, #4            ; [DPU_V7M3_PIPE] |1129| 
        STR       A1, [A2, #8]          ; [DPU_V7M3_PIPE] |1129| 
        LDR       A1, [SP, #0]          ; [DPU_V7M3_PIPE] |1129| 
        LDR       A2, [SP, #0]          ; [DPU_V7M3_PIPE] |1129| 
        LDR       A4, [A1, #44]         ; [DPU_V7M3_PIPE] |1129| 
        LSLS      A1, A4, #2            ; [DPU_V7M3_PIPE] |1129| 
        ADD       A1, A1, A4, LSL #4    ; [DPU_V7M3_PIPE] |1129| 
        ADDS      A1, A1, A3            ; [DPU_V7M3_PIPE] |1129| 
        STR       A1, [A2, #20]         ; [DPU_V7M3_PIPE] |1129| 
        LDR       A1, [SP, #0]          ; [DPU_V7M3_PIPE] |1129| 
        LDR       A3, $C$CON7           ; [DPU_V7M3_PIPE] |1129| 
        LDR       A2, [A1, #44]         ; [DPU_V7M3_PIPE] |1129| 
        LSLS      A1, A2, #2            ; [DPU_V7M3_PIPE] |1129| 
        ADD       A1, A1, A2, LSL #4    ; [DPU_V7M3_PIPE] |1129| 
        LDR       A2, [A1, +A3]         ; [DPU_V7M3_PIPE] |1129| 
        ADDS      A2, A2, #1            ; [DPU_V7M3_PIPE] |1129| 
        STR       A2, [A1, +A3]         ; [DPU_V7M3_PIPE] |1129| 
	.dwendtag $C$DW$101

	.dwpsn	file "C:/Tools/Thirdparty/FreeRTOSv202112.00/FreeRTOS/Source/tasks.c",line 1131,column 9,is_stmt,isa 1
	.dwendtag $C$DW$99

	.dwpsn	file "C:/Tools/Thirdparty/FreeRTOSv202112.00/FreeRTOS/Source/tasks.c",line 1133,column 5,is_stmt,isa 1
$C$DW$103	.dwtag  DW_TAG_TI_branch
	.dwattr $C$DW$103, DW_AT_low_pc(0x00)
	.dwattr $C$DW$103, DW_AT_name("vPortExitCritical")
	.dwattr $C$DW$103, DW_AT_TI_call

        BL        vPortExitCritical     ; [DPU_V7M3_PIPE] |1133| 
        ; CALL OCCURS {vPortExitCritical }  ; [] |1133| 
	.dwpsn	file "C:/Tools/Thirdparty/FreeRTOSv202112.00/FreeRTOS/Source/tasks.c",line 1135,column 5,is_stmt,isa 1
        LDR       A1, $C$CON3           ; [DPU_V7M3_PIPE] |1135| 
        LDR       A1, [A1, #0]          ; [DPU_V7M3_PIPE] |1135| 
        CBZ       A1, ||$C$L14||        ; [] 
        ; BRANCHCC OCCURS {||$C$L14||}   ; [] |1135| 
;* --------------------------------------------------------------------------*
	.dwpsn	file "C:/Tools/Thirdparty/FreeRTOSv202112.00/FreeRTOS/Source/tasks.c",line 1139,column 9,is_stmt,isa 1
        LDR       A2, $C$CON2           ; [DPU_V7M3_PIPE] |1139| 
        LDR       A1, [SP, #0]          ; [DPU_V7M3_PIPE] |1139| 
        LDR       A2, [A2, #0]          ; [DPU_V7M3_PIPE] |1139| 
        LDR       A1, [A1, #44]         ; [DPU_V7M3_PIPE] |1139| 
        LDR       A2, [A2, #44]         ; [DPU_V7M3_PIPE] |1139| 
        CMP       A1, A2                ; [DPU_V7M3_PIPE] |1139| 
        BLS       ||$C$L14||            ; [DPU_V7M3_PIPE] |1139| 
        ; BRANCHCC OCCURS {||$C$L14||}   ; [] |1139| 
;* --------------------------------------------------------------------------*
	.dwpsn	file "C:/Tools/Thirdparty/FreeRTOSv202112.00/FreeRTOS/Source/tasks.c",line 1141,column 13,is_stmt,isa 1
        LDR       A2, $C$CON8           ; [DPU_V7M3_PIPE] |1141| 
        MOV       A1, #268435456        ; [DPU_V7M3_PIPE] |1141| 
        STR       A1, [A2, #0]          ; [DPU_V7M3_PIPE] |1141| 
	dsb
	isb
        B         ||$C$L14||            ; [DPU_V7M3_PIPE] 
        ; BRANCH OCCURS {||$C$L14||}     ; [] 
;* --------------------------------------------------------------------------*
;* --------------------------------------------------------------------------*
||$C$L14||:    
$C$DW$104	.dwtag  DW_TAG_TI_branch
	.dwattr $C$DW$104, DW_AT_low_pc(0x00)
	.dwattr $C$DW$104, DW_AT_TI_return

        POP       {A2, A3, A4, PC}      ; [DPU_V7M3_PIPE] 
	.dwcfi	cfa_offset, 0
	.dwcfi	restore_reg, 3
	.dwcfi	restore_reg, 2
	.dwcfi	restore_reg, 1
        ; BRANCH OCCURS                  ; [] 
	.dwattr $C$DW$95, DW_AT_TI_end_file("C:/Tools/Thirdparty/FreeRTOSv202112.00/FreeRTOS/Source/tasks.c")
	.dwattr $C$DW$95, DW_AT_TI_end_line(0x480)
	.dwattr $C$DW$95, DW_AT_TI_end_column(0x01)
	.dwendentry
	.dwendtag $C$DW$95

	.sect	".text"
	.clink
	.thumbfunc vTaskDelete
	.thumb
	.global	vTaskDelete

$C$DW$105	.dwtag  DW_TAG_subprogram
	.dwattr $C$DW$105, DW_AT_name("vTaskDelete")
	.dwattr $C$DW$105, DW_AT_low_pc(vTaskDelete)
	.dwattr $C$DW$105, DW_AT_high_pc(0x00)
	.dwattr $C$DW$105, DW_AT_TI_symbol_name("vTaskDelete")
	.dwattr $C$DW$105, DW_AT_external
	.dwattr $C$DW$105, DW_AT_TI_begin_file("C:/Tools/Thirdparty/FreeRTOSv202112.00/FreeRTOS/Source/tasks.c")
	.dwattr $C$DW$105, DW_AT_TI_begin_line(0x485)
	.dwattr $C$DW$105, DW_AT_TI_begin_column(0x0a)
	.dwattr $C$DW$105, DW_AT_decl_file("C:/Tools/Thirdparty/FreeRTOSv202112.00/FreeRTOS/Source/tasks.c")
	.dwattr $C$DW$105, DW_AT_decl_line(0x485)
	.dwattr $C$DW$105, DW_AT_decl_column(0x0a)
	.dwattr $C$DW$105, DW_AT_TI_max_frame_size(0x10)
	.dwpsn	file "C:/Tools/Thirdparty/FreeRTOSv202112.00/FreeRTOS/Source/tasks.c",line 1158,column 5,is_stmt,address vTaskDelete,isa 1

	.dwfde $C$DW$CIE, vTaskDelete
$C$DW$106	.dwtag  DW_TAG_formal_parameter
	.dwattr $C$DW$106, DW_AT_name("xTaskToDelete")
	.dwattr $C$DW$106, DW_AT_TI_symbol_name("xTaskToDelete")
	.dwattr $C$DW$106, DW_AT_type(*$C$DW$T$94)
	.dwattr $C$DW$106, DW_AT_location[DW_OP_reg0]


;*****************************************************************************
;* FUNCTION NAME: vTaskDelete                                                *
;*                                                                           *
;*   Regs Modified     : A1,A2,A3,A4,V9,SP,LR,SR,D0,D0_hi,D1,D1_hi,D2,D2_hi, *
;*                           D3,D3_hi,D4,D4_hi,D5,D5_hi,D6,D6_hi,D7,D7_hi,   *
;*                           FPEXC,FPSCR                                     *
;*   Regs Used         : A1,A2,A3,A4,V9,SP,LR,SR,D0,D0_hi,D1,D1_hi,D2,D2_hi, *
;*                           D3,D3_hi,D4,D4_hi,D5,D5_hi,D6,D6_hi,D7,D7_hi,   *
;*                           FPEXC,FPSCR                                     *
;*   Local Frame Size  : 0 Args + 8 Auto + 4 Save = 12 byte                  *
;*****************************************************************************
vTaskDelete:
;* --------------------------------------------------------------------------*
	.dwcfi	cfa_offset, 0
        PUSH      {A2, A3, A4, LR}      ; [DPU_V7M3_PIPE] 
	.dwcfi	cfa_offset, 16
	.dwcfi	save_reg_to_mem, 14, -4
	.dwcfi	save_reg_to_mem, 3, -8
	.dwcfi	save_reg_to_mem, 2, -12
	.dwcfi	save_reg_to_mem, 1, -16
$C$DW$107	.dwtag  DW_TAG_variable
	.dwattr $C$DW$107, DW_AT_name("xTaskToDelete")
	.dwattr $C$DW$107, DW_AT_TI_symbol_name("xTaskToDelete")
	.dwattr $C$DW$107, DW_AT_type(*$C$DW$T$94)
	.dwattr $C$DW$107, DW_AT_location[DW_OP_breg13 0]

$C$DW$108	.dwtag  DW_TAG_variable
	.dwattr $C$DW$108, DW_AT_name("pxTCB")
	.dwattr $C$DW$108, DW_AT_TI_symbol_name("pxTCB")
	.dwattr $C$DW$108, DW_AT_type(*$C$DW$T$135)
	.dwattr $C$DW$108, DW_AT_location[DW_OP_breg13 4]

        STR       A1, [SP, #0]          ; [DPU_V7M3_PIPE] |1158| 
	.dwpsn	file "C:/Tools/Thirdparty/FreeRTOSv202112.00/FreeRTOS/Source/tasks.c",line 1161,column 9,is_stmt,isa 1
$C$DW$109	.dwtag  DW_TAG_TI_branch
	.dwattr $C$DW$109, DW_AT_low_pc(0x00)
	.dwattr $C$DW$109, DW_AT_name("vPortEnterCritical")
	.dwattr $C$DW$109, DW_AT_TI_call

        BL        vPortEnterCritical    ; [DPU_V7M3_PIPE] |1161| 
        ; CALL OCCURS {vPortEnterCritical }  ; [] |1161| 
	.dwpsn	file "C:/Tools/Thirdparty/FreeRTOSv202112.00/FreeRTOS/Source/tasks.c",line 1165,column 13,is_stmt,isa 1
        LDR       A1, [SP, #0]          ; [DPU_V7M3_PIPE] |1165| 
        CBNZ      A1, ||$C$L15||        ; [] 
        ; BRANCHCC OCCURS {||$C$L15||}   ; [] |1165| 
;* --------------------------------------------------------------------------*
        LDR       A1, $C$CON2           ; [DPU_V7M3_PIPE] |1165| 
        LDR       A1, [A1, #0]          ; [DPU_V7M3_PIPE] |1165| 
        B         ||$C$L16||            ; [DPU_V7M3_PIPE] |1165| 
        ; BRANCH OCCURS {||$C$L16||}     ; [] |1165| 
;* --------------------------------------------------------------------------*
||$C$L15||:    
        LDR       A1, [SP, #0]          ; [DPU_V7M3_PIPE] |1165| 
;* --------------------------------------------------------------------------*
||$C$L16||:    
        STR       A1, [SP, #4]          ; [DPU_V7M3_PIPE] |1165| 
	.dwpsn	file "C:/Tools/Thirdparty/FreeRTOSv202112.00/FreeRTOS/Source/tasks.c",line 1168,column 13,is_stmt,isa 1
        LDR       A1, [SP, #4]          ; [DPU_V7M3_PIPE] |1168| 
        ADDS      A1, A1, #4            ; [DPU_V7M3_PIPE] |1168| 
$C$DW$110	.dwtag  DW_TAG_TI_branch
	.dwattr $C$DW$110, DW_AT_low_pc(0x00)
	.dwattr $C$DW$110, DW_AT_name("uxListRemove")
	.dwattr $C$DW$110, DW_AT_TI_call

        BL        uxListRemove          ; [DPU_V7M3_PIPE] |1168| 
        ; CALL OCCURS {uxListRemove }    ; [] |1168| 
        CBNZ      A1, ||$C$L17||        ; [] 
        ; BRANCHCC OCCURS {||$C$L17||}   ; [] |1168| 
;* --------------------------------------------------------------------------*
	.dwpsn	file "C:/Tools/Thirdparty/FreeRTOSv202112.00/FreeRTOS/Source/tasks.c",line 1170,column 17,is_stmt,isa 1
        LDR       A1, [SP, #4]          ; [DPU_V7M3_PIPE] |1170| 
        LDR       A2, $C$CON7           ; [DPU_V7M3_PIPE] |1170| 
        LDR       A3, [A1, #44]         ; [DPU_V7M3_PIPE] |1170| 
        LSLS      A1, A3, #2            ; [DPU_V7M3_PIPE] |1170| 
        ADD       A1, A1, A3, LSL #4    ; [DPU_V7M3_PIPE] |1170| 
        LDR       A1, [A2, +A1]         ; [DPU_V7M3_PIPE] |1170| 
        CBNZ      A1, ||$C$L17||        ; [] 
        ; BRANCHCC OCCURS {||$C$L17||}   ; [] |1170| 
;* --------------------------------------------------------------------------*
        LDR       A1, [SP, #4]          ; [DPU_V7M3_PIPE] |1170| 
        LDR       A3, $C$CON5           ; [DPU_V7M3_PIPE] |1170| 
        LDR       A4, [A1, #44]         ; [DPU_V7M3_PIPE] |1170| 
        LDR       A2, [A3, #0]          ; [DPU_V7M3_PIPE] |1170| 
        MOVS      A1, #1                ; [DPU_V7M3_PIPE] |1170| 
        LSLS      A1, A1, A4            ; [DPU_V7M3_PIPE] |1170| 
        BICS      A2, A2, A1            ; [DPU_V7M3_PIPE] |1170| 
        STR       A2, [A3, #0]          ; [DPU_V7M3_PIPE] |1170| 
;* --------------------------------------------------------------------------*
||$C$L17||:    
	.dwpsn	file "C:/Tools/Thirdparty/FreeRTOSv202112.00/FreeRTOS/Source/tasks.c",line 1178,column 13,is_stmt,isa 1
        LDR       A1, [SP, #4]          ; [DPU_V7M3_PIPE] |1178| 
        LDR       A1, [A1, #40]         ; [DPU_V7M3_PIPE] |1178| 
        CBZ       A1, ||$C$L18||        ; [] 
        ; BRANCHCC OCCURS {||$C$L18||}   ; [] |1178| 
;* --------------------------------------------------------------------------*
	.dwpsn	file "C:/Tools/Thirdparty/FreeRTOSv202112.00/FreeRTOS/Source/tasks.c",line 1180,column 17,is_stmt,isa 1
        LDR       A1, [SP, #4]          ; [DPU_V7M3_PIPE] |1180| 
        ADDS      A1, A1, #24           ; [DPU_V7M3_PIPE] |1180| 
$C$DW$111	.dwtag  DW_TAG_TI_branch
	.dwattr $C$DW$111, DW_AT_low_pc(0x00)
	.dwattr $C$DW$111, DW_AT_name("uxListRemove")
	.dwattr $C$DW$111, DW_AT_TI_call

        BL        uxListRemove          ; [DPU_V7M3_PIPE] |1180| 
        ; CALL OCCURS {uxListRemove }    ; [] |1180| 
;* --------------------------------------------------------------------------*
||$C$L18||:    
	.dwpsn	file "C:/Tools/Thirdparty/FreeRTOSv202112.00/FreeRTOS/Source/tasks.c",line 1191,column 13,is_stmt,isa 1
        LDR       A2, $C$CON4           ; [DPU_V7M3_PIPE] |1191| 
        LDR       A1, [A2, #0]          ; [DPU_V7M3_PIPE] |1191| 
        ADDS      A1, A1, #1            ; [DPU_V7M3_PIPE] |1191| 
        STR       A1, [A2, #0]          ; [DPU_V7M3_PIPE] |1191| 
	.dwpsn	file "C:/Tools/Thirdparty/FreeRTOSv202112.00/FreeRTOS/Source/tasks.c",line 1193,column 13,is_stmt,isa 1
        LDR       A1, $C$CON2           ; [DPU_V7M3_PIPE] |1193| 
        LDR       A2, [SP, #4]          ; [DPU_V7M3_PIPE] |1193| 
        LDR       A1, [A1, #0]          ; [DPU_V7M3_PIPE] |1193| 
        CMP       A1, A2                ; [DPU_V7M3_PIPE] |1193| 
        BNE       ||$C$L19||            ; [DPU_V7M3_PIPE] |1193| 
        ; BRANCHCC OCCURS {||$C$L19||}   ; [] |1193| 
;* --------------------------------------------------------------------------*
	.dwpsn	file "C:/Tools/Thirdparty/FreeRTOSv202112.00/FreeRTOS/Source/tasks.c",line 1200,column 17,is_stmt,isa 1
        LDR       A2, [SP, #4]          ; [DPU_V7M3_PIPE] |1200| 
        LDR       A1, $C$CON9           ; [DPU_V7M3_PIPE] |1200| 
        ADDS      A2, A2, #4            ; [DPU_V7M3_PIPE] |1200| 
$C$DW$112	.dwtag  DW_TAG_TI_branch
	.dwattr $C$DW$112, DW_AT_low_pc(0x00)
	.dwattr $C$DW$112, DW_AT_name("vListInsertEnd")
	.dwattr $C$DW$112, DW_AT_TI_call

        BL        vListInsertEnd        ; [DPU_V7M3_PIPE] |1200| 
        ; CALL OCCURS {vListInsertEnd }  ; [] |1200| 
	.dwpsn	file "C:/Tools/Thirdparty/FreeRTOSv202112.00/FreeRTOS/Source/tasks.c",line 1205,column 17,is_stmt,isa 1
        LDR       A2, $C$CON10          ; [DPU_V7M3_PIPE] |1205| 
        LDR       A1, [A2, #0]          ; [DPU_V7M3_PIPE] |1205| 
        ADDS      A1, A1, #1            ; [DPU_V7M3_PIPE] |1205| 
        STR       A1, [A2, #0]          ; [DPU_V7M3_PIPE] |1205| 
        B         ||$C$L20||            ; [DPU_V7M3_PIPE] 
        ; BRANCH OCCURS {||$C$L20||}     ; [] 
;* --------------------------------------------------------------------------*
||$C$L19||:    
	.dwpsn	file "C:/Tools/Thirdparty/FreeRTOSv202112.00/FreeRTOS/Source/tasks.c",line 1220,column 17,is_stmt,isa 1
        LDR       A2, $C$CON1           ; [DPU_V7M3_PIPE] |1220| 
        LDR       A1, [A2, #0]          ; [DPU_V7M3_PIPE] |1220| 
        SUBS      A1, A1, #1            ; [DPU_V7M3_PIPE] |1220| 
        STR       A1, [A2, #0]          ; [DPU_V7M3_PIPE] |1220| 
	.dwpsn	file "C:/Tools/Thirdparty/FreeRTOSv202112.00/FreeRTOS/Source/tasks.c",line 1225,column 17,is_stmt,isa 1
$C$DW$113	.dwtag  DW_TAG_TI_branch
	.dwattr $C$DW$113, DW_AT_low_pc(0x00)
	.dwattr $C$DW$113, DW_AT_name("prvResetNextTaskUnblockTime")
	.dwattr $C$DW$113, DW_AT_TI_call

        BL        prvResetNextTaskUnblockTime ; [DPU_V7M3_PIPE] |1225| 
        ; CALL OCCURS {prvResetNextTaskUnblockTime }  ; [] |1225| 
;* --------------------------------------------------------------------------*
||$C$L20||:    
	.dwpsn	file "C:/Tools/Thirdparty/FreeRTOSv202112.00/FreeRTOS/Source/tasks.c",line 1228,column 9,is_stmt,isa 1
$C$DW$114	.dwtag  DW_TAG_TI_branch
	.dwattr $C$DW$114, DW_AT_low_pc(0x00)
	.dwattr $C$DW$114, DW_AT_name("vPortExitCritical")
	.dwattr $C$DW$114, DW_AT_TI_call

        BL        vPortExitCritical     ; [DPU_V7M3_PIPE] |1228| 
        ; CALL OCCURS {vPortExitCritical }  ; [] |1228| 
	.dwpsn	file "C:/Tools/Thirdparty/FreeRTOSv202112.00/FreeRTOS/Source/tasks.c",line 1233,column 9,is_stmt,isa 1
        LDR       A1, $C$CON2           ; [DPU_V7M3_PIPE] |1233| 
        LDR       A2, [SP, #4]          ; [DPU_V7M3_PIPE] |1233| 
        LDR       A1, [A1, #0]          ; [DPU_V7M3_PIPE] |1233| 
        CMP       A1, A2                ; [DPU_V7M3_PIPE] |1233| 
        BEQ       ||$C$L21||            ; [DPU_V7M3_PIPE] |1233| 
        ; BRANCHCC OCCURS {||$C$L21||}   ; [] |1233| 
;* --------------------------------------------------------------------------*
	.dwpsn	file "C:/Tools/Thirdparty/FreeRTOSv202112.00/FreeRTOS/Source/tasks.c",line 1235,column 13,is_stmt,isa 1
        LDR       A1, [SP, #4]          ; [DPU_V7M3_PIPE] |1235| 
$C$DW$115	.dwtag  DW_TAG_TI_branch
	.dwattr $C$DW$115, DW_AT_low_pc(0x00)
	.dwattr $C$DW$115, DW_AT_name("prvDeleteTCB")
	.dwattr $C$DW$115, DW_AT_TI_call

        BL        prvDeleteTCB          ; [DPU_V7M3_PIPE] |1235| 
        ; CALL OCCURS {prvDeleteTCB }    ; [] |1235| 
;* --------------------------------------------------------------------------*
||$C$L21||:    
	.dwpsn	file "C:/Tools/Thirdparty/FreeRTOSv202112.00/FreeRTOS/Source/tasks.c",line 1240,column 9,is_stmt,isa 1
        LDR       A1, $C$CON3           ; [DPU_V7M3_PIPE] |1240| 
        LDR       A1, [A1, #0]          ; [DPU_V7M3_PIPE] |1240| 
        CBZ       A1, ||$C$L22||        ; [] 
        ; BRANCHCC OCCURS {||$C$L22||}   ; [] |1240| 
;* --------------------------------------------------------------------------*
	.dwpsn	file "C:/Tools/Thirdparty/FreeRTOSv202112.00/FreeRTOS/Source/tasks.c",line 1242,column 13,is_stmt,isa 1
        LDR       A1, $C$CON2           ; [DPU_V7M3_PIPE] |1242| 
        LDR       A2, [SP, #4]          ; [DPU_V7M3_PIPE] |1242| 
        LDR       A1, [A1, #0]          ; [DPU_V7M3_PIPE] |1242| 
        CMP       A1, A2                ; [DPU_V7M3_PIPE] |1242| 
        BNE       ||$C$L22||            ; [DPU_V7M3_PIPE] |1242| 
        ; BRANCHCC OCCURS {||$C$L22||}   ; [] |1242| 
;* --------------------------------------------------------------------------*
	.dwpsn	file "C:/Tools/Thirdparty/FreeRTOSv202112.00/FreeRTOS/Source/tasks.c",line 1245,column 17,is_stmt,isa 1
        LDR       A2, $C$CON8           ; [DPU_V7M3_PIPE] |1245| 
        MOV       A1, #268435456        ; [DPU_V7M3_PIPE] |1245| 
        STR       A1, [A2, #0]          ; [DPU_V7M3_PIPE] |1245| 
	dsb
	isb
        B         ||$C$L22||            ; [DPU_V7M3_PIPE] 
        ; BRANCH OCCURS {||$C$L22||}     ; [] 
;* --------------------------------------------------------------------------*
;* --------------------------------------------------------------------------*
||$C$L22||:    
$C$DW$116	.dwtag  DW_TAG_TI_branch
	.dwattr $C$DW$116, DW_AT_low_pc(0x00)
	.dwattr $C$DW$116, DW_AT_TI_return

        POP       {A2, A3, A4, PC}      ; [DPU_V7M3_PIPE] 
	.dwcfi	cfa_offset, 0
	.dwcfi	restore_reg, 3
	.dwcfi	restore_reg, 2
	.dwcfi	restore_reg, 1
        ; BRANCH OCCURS                  ; [] 
	.dwattr $C$DW$105, DW_AT_TI_end_file("C:/Tools/Thirdparty/FreeRTOSv202112.00/FreeRTOS/Source/tasks.c")
	.dwattr $C$DW$105, DW_AT_TI_end_line(0x4e4)
	.dwattr $C$DW$105, DW_AT_TI_end_column(0x05)
	.dwendentry
	.dwendtag $C$DW$105

	.sect	".text"
	.clink
	.thumbfunc xTaskDelayUntil
	.thumb
	.global	xTaskDelayUntil

$C$DW$117	.dwtag  DW_TAG_subprogram
	.dwattr $C$DW$117, DW_AT_name("xTaskDelayUntil")
	.dwattr $C$DW$117, DW_AT_low_pc(xTaskDelayUntil)
	.dwattr $C$DW$117, DW_AT_high_pc(0x00)
	.dwattr $C$DW$117, DW_AT_TI_symbol_name("xTaskDelayUntil")
	.dwattr $C$DW$117, DW_AT_external
	.dwattr $C$DW$117, DW_AT_type(*$C$DW$T$98)
	.dwattr $C$DW$117, DW_AT_TI_begin_file("C:/Tools/Thirdparty/FreeRTOSv202112.00/FreeRTOS/Source/tasks.c")
	.dwattr $C$DW$117, DW_AT_TI_begin_line(0x4eb)
	.dwattr $C$DW$117, DW_AT_TI_begin_column(0x10)
	.dwattr $C$DW$117, DW_AT_decl_file("C:/Tools/Thirdparty/FreeRTOSv202112.00/FreeRTOS/Source/tasks.c")
	.dwattr $C$DW$117, DW_AT_decl_line(0x4eb)
	.dwattr $C$DW$117, DW_AT_decl_column(0x10)
	.dwattr $C$DW$117, DW_AT_TI_max_frame_size(0x20)
	.dwpsn	file "C:/Tools/Thirdparty/FreeRTOSv202112.00/FreeRTOS/Source/tasks.c",line 1261,column 5,is_stmt,address xTaskDelayUntil,isa 1

	.dwfde $C$DW$CIE, xTaskDelayUntil
$C$DW$118	.dwtag  DW_TAG_formal_parameter
	.dwattr $C$DW$118, DW_AT_name("pxPreviousWakeTime")
	.dwattr $C$DW$118, DW_AT_TI_symbol_name("pxPreviousWakeTime")
	.dwattr $C$DW$118, DW_AT_type(*$C$DW$T$269)
	.dwattr $C$DW$118, DW_AT_location[DW_OP_reg0]

$C$DW$119	.dwtag  DW_TAG_formal_parameter
	.dwattr $C$DW$119, DW_AT_name("xTimeIncrement")
	.dwattr $C$DW$119, DW_AT_TI_symbol_name("xTimeIncrement")
	.dwattr $C$DW$119, DW_AT_type(*$C$DW$T$144)
	.dwattr $C$DW$119, DW_AT_location[DW_OP_reg1]


;*****************************************************************************
;* FUNCTION NAME: xTaskDelayUntil                                            *
;*                                                                           *
;*   Regs Modified     : A1,A2,A3,A4,V9,SP,LR,SR,D0,D0_hi,D1,D1_hi,D2,D2_hi, *
;*                           D3,D3_hi,D4,D4_hi,D5,D5_hi,D6,D6_hi,D7,D7_hi,   *
;*                           FPEXC,FPSCR                                     *
;*   Regs Used         : A1,A2,A3,A4,V9,SP,LR,SR,D0,D0_hi,D1,D1_hi,D2,D2_hi, *
;*                           D3,D3_hi,D4,D4_hi,D5,D5_hi,D6,D6_hi,D7,D7_hi,   *
;*                           FPEXC,FPSCR                                     *
;*   Local Frame Size  : 0 Args + 24 Auto + 4 Save = 28 byte                 *
;*****************************************************************************
xTaskDelayUntil:
;* --------------------------------------------------------------------------*
	.dwcfi	cfa_offset, 0
        PUSH      {LR}                  ; [DPU_V7M3_PIPE] 
	.dwcfi	cfa_offset, 4
	.dwcfi	save_reg_to_mem, 14, -4
        SUB       SP, SP, #28           ; [DPU_V7M3_PIPE] 
	.dwcfi	cfa_offset, 32
$C$DW$120	.dwtag  DW_TAG_variable
	.dwattr $C$DW$120, DW_AT_name("pxPreviousWakeTime")
	.dwattr $C$DW$120, DW_AT_TI_symbol_name("pxPreviousWakeTime")
	.dwattr $C$DW$120, DW_AT_type(*$C$DW$T$269)
	.dwattr $C$DW$120, DW_AT_location[DW_OP_breg13 0]

$C$DW$121	.dwtag  DW_TAG_variable
	.dwattr $C$DW$121, DW_AT_name("xTimeIncrement")
	.dwattr $C$DW$121, DW_AT_TI_symbol_name("xTimeIncrement")
	.dwattr $C$DW$121, DW_AT_type(*$C$DW$T$144)
	.dwattr $C$DW$121, DW_AT_location[DW_OP_breg13 4]

$C$DW$122	.dwtag  DW_TAG_variable
	.dwattr $C$DW$122, DW_AT_name("xTimeToWake")
	.dwattr $C$DW$122, DW_AT_TI_symbol_name("xTimeToWake")
	.dwattr $C$DW$122, DW_AT_type(*$C$DW$T$54)
	.dwattr $C$DW$122, DW_AT_location[DW_OP_breg13 8]

$C$DW$123	.dwtag  DW_TAG_variable
	.dwattr $C$DW$123, DW_AT_name("xAlreadyYielded")
	.dwattr $C$DW$123, DW_AT_TI_symbol_name("xAlreadyYielded")
	.dwattr $C$DW$123, DW_AT_type(*$C$DW$T$98)
	.dwattr $C$DW$123, DW_AT_location[DW_OP_breg13 12]

$C$DW$124	.dwtag  DW_TAG_variable
	.dwattr $C$DW$124, DW_AT_name("xShouldDelay")
	.dwattr $C$DW$124, DW_AT_TI_symbol_name("xShouldDelay")
	.dwattr $C$DW$124, DW_AT_type(*$C$DW$T$98)
	.dwattr $C$DW$124, DW_AT_location[DW_OP_breg13 16]

        STR       A2, [SP, #4]          ; [DPU_V7M3_PIPE] |1261| 
        STR       A1, [SP, #0]          ; [DPU_V7M3_PIPE] |1261| 
	.dwpsn	file "C:/Tools/Thirdparty/FreeRTOSv202112.00/FreeRTOS/Source/tasks.c",line 1263,column 50,is_stmt,isa 1
        MOVS      A1, #0                ; [DPU_V7M3_PIPE] |1263| 
        STR       A1, [SP, #16]         ; [DPU_V7M3_PIPE] |1263| 
	.dwpsn	file "C:/Tools/Thirdparty/FreeRTOSv202112.00/FreeRTOS/Source/tasks.c",line 1269,column 9,is_stmt,isa 1
$C$DW$125	.dwtag  DW_TAG_TI_branch
	.dwattr $C$DW$125, DW_AT_low_pc(0x00)
	.dwattr $C$DW$125, DW_AT_name("vTaskSuspendAll")
	.dwattr $C$DW$125, DW_AT_TI_call

        BL        vTaskSuspendAll       ; [DPU_V7M3_PIPE] |1269| 
        ; CALL OCCURS {vTaskSuspendAll }  ; [] |1269| 

$C$DW$126	.dwtag  DW_TAG_lexical_block
	.dwattr $C$DW$126, DW_AT_low_pc(0x00)
	.dwattr $C$DW$126, DW_AT_high_pc(0x00)
$C$DW$127	.dwtag  DW_TAG_variable
	.dwattr $C$DW$127, DW_AT_name("xConstTickCount")
	.dwattr $C$DW$127, DW_AT_TI_symbol_name("xConstTickCount")
	.dwattr $C$DW$127, DW_AT_type(*$C$DW$T$144)
	.dwattr $C$DW$127, DW_AT_location[DW_OP_breg13 20]

	.dwpsn	file "C:/Tools/Thirdparty/FreeRTOSv202112.00/FreeRTOS/Source/tasks.c",line 1273,column 46,is_stmt,isa 1
        LDR       A1, $C$CON11          ; [DPU_V7M3_PIPE] |1273| 
        LDR       A1, [A1, #0]          ; [DPU_V7M3_PIPE] |1273| 
        STR       A1, [SP, #20]         ; [DPU_V7M3_PIPE] |1273| 
	.dwpsn	file "C:/Tools/Thirdparty/FreeRTOSv202112.00/FreeRTOS/Source/tasks.c",line 1276,column 13,is_stmt,isa 1
        LDR       A1, [SP, #0]          ; [DPU_V7M3_PIPE] |1276| 
        LDR       A2, [SP, #4]          ; [DPU_V7M3_PIPE] |1276| 
        LDR       A1, [A1, #0]          ; [DPU_V7M3_PIPE] |1276| 
        ADDS      A1, A1, A2            ; [DPU_V7M3_PIPE] |1276| 
        STR       A1, [SP, #8]          ; [DPU_V7M3_PIPE] |1276| 
	.dwpsn	file "C:/Tools/Thirdparty/FreeRTOSv202112.00/FreeRTOS/Source/tasks.c",line 1278,column 13,is_stmt,isa 1
        LDR       A1, [SP, #0]          ; [DPU_V7M3_PIPE] |1278| 
        LDR       A2, [SP, #20]         ; [DPU_V7M3_PIPE] |1278| 
        LDR       A1, [A1, #0]          ; [DPU_V7M3_PIPE] |1278| 
        CMP       A1, A2                ; [DPU_V7M3_PIPE] |1278| 
        BLS       ||$C$L23||            ; [DPU_V7M3_PIPE] |1278| 
        ; BRANCHCC OCCURS {||$C$L23||}   ; [] |1278| 
;* --------------------------------------------------------------------------*
	.dwpsn	file "C:/Tools/Thirdparty/FreeRTOSv202112.00/FreeRTOS/Source/tasks.c",line 1285,column 17,is_stmt,isa 1
        LDR       A1, [SP, #0]          ; [DPU_V7M3_PIPE] |1285| 
        LDR       A2, [SP, #8]          ; [DPU_V7M3_PIPE] |1285| 
        LDR       A1, [A1, #0]          ; [DPU_V7M3_PIPE] |1285| 
        CMP       A1, A2                ; [DPU_V7M3_PIPE] |1285| 
        BLS       ||$C$L25||            ; [DPU_V7M3_PIPE] |1285| 
        ; BRANCHCC OCCURS {||$C$L25||}   ; [] |1285| 
;* --------------------------------------------------------------------------*
        LDR       A1, [SP, #20]         ; [DPU_V7M3_PIPE] |1285| 
        LDR       A2, [SP, #8]          ; [DPU_V7M3_PIPE] |1285| 
        CMP       A1, A2                ; [DPU_V7M3_PIPE] |1285| 
        BCS       ||$C$L25||            ; [DPU_V7M3_PIPE] |1285| 
        ; BRANCHCC OCCURS {||$C$L25||}   ; [] |1285| 
;* --------------------------------------------------------------------------*
	.dwpsn	file "C:/Tools/Thirdparty/FreeRTOSv202112.00/FreeRTOS/Source/tasks.c",line 1287,column 21,is_stmt,isa 1
        MOVS      A1, #1                ; [DPU_V7M3_PIPE] |1287| 
        STR       A1, [SP, #16]         ; [DPU_V7M3_PIPE] |1287| 
        B         ||$C$L25||            ; [DPU_V7M3_PIPE] 
        ; BRANCH OCCURS {||$C$L25||}     ; [] 
;* --------------------------------------------------------------------------*
||$C$L23||:    
	.dwpsn	file "C:/Tools/Thirdparty/FreeRTOSv202112.00/FreeRTOS/Source/tasks.c",line 1299,column 17,is_stmt,isa 1
        LDR       A1, [SP, #0]          ; [DPU_V7M3_PIPE] |1299| 
        LDR       A2, [SP, #8]          ; [DPU_V7M3_PIPE] |1299| 
        LDR       A1, [A1, #0]          ; [DPU_V7M3_PIPE] |1299| 
        CMP       A1, A2                ; [DPU_V7M3_PIPE] |1299| 
        BHI       ||$C$L24||            ; [DPU_V7M3_PIPE] |1299| 
        ; BRANCHCC OCCURS {||$C$L24||}   ; [] |1299| 
;* --------------------------------------------------------------------------*
        LDR       A1, [SP, #20]         ; [DPU_V7M3_PIPE] |1299| 
        LDR       A2, [SP, #8]          ; [DPU_V7M3_PIPE] |1299| 
        CMP       A1, A2                ; [DPU_V7M3_PIPE] |1299| 
        BCS       ||$C$L25||            ; [DPU_V7M3_PIPE] |1299| 
        ; BRANCHCC OCCURS {||$C$L25||}   ; [] |1299| 
;* --------------------------------------------------------------------------*
||$C$L24||:    
	.dwpsn	file "C:/Tools/Thirdparty/FreeRTOSv202112.00/FreeRTOS/Source/tasks.c",line 1301,column 21,is_stmt,isa 1
        MOVS      A1, #1                ; [DPU_V7M3_PIPE] |1301| 
        STR       A1, [SP, #16]         ; [DPU_V7M3_PIPE] |1301| 
;* --------------------------------------------------------------------------*
||$C$L25||:    
	.dwpsn	file "C:/Tools/Thirdparty/FreeRTOSv202112.00/FreeRTOS/Source/tasks.c",line 1310,column 13,is_stmt,isa 1
        LDR       A1, [SP, #8]          ; [DPU_V7M3_PIPE] |1310| 
        LDR       A2, [SP, #0]          ; [DPU_V7M3_PIPE] |1310| 
        STR       A1, [A2, #0]          ; [DPU_V7M3_PIPE] |1310| 
	.dwpsn	file "C:/Tools/Thirdparty/FreeRTOSv202112.00/FreeRTOS/Source/tasks.c",line 1312,column 13,is_stmt,isa 1
        LDR       A1, [SP, #16]         ; [DPU_V7M3_PIPE] |1312| 
        CBZ       A1, ||$C$L26||        ; [] 
        ; BRANCHCC OCCURS {||$C$L26||}   ; [] |1312| 
;* --------------------------------------------------------------------------*
	.dwpsn	file "C:/Tools/Thirdparty/FreeRTOSv202112.00/FreeRTOS/Source/tasks.c",line 1318,column 17,is_stmt,isa 1
        LDR       A2, [SP, #20]         ; [DPU_V7M3_PIPE] |1318| 
        LDR       A1, [SP, #8]          ; [DPU_V7M3_PIPE] |1318| 
        SUBS      A1, A1, A2            ; [DPU_V7M3_PIPE] |1318| 
        MOVS      A2, #0                ; [DPU_V7M3_PIPE] |1318| 
$C$DW$128	.dwtag  DW_TAG_TI_branch
	.dwattr $C$DW$128, DW_AT_low_pc(0x00)
	.dwattr $C$DW$128, DW_AT_name("prvAddCurrentTaskToDelayedList")
	.dwattr $C$DW$128, DW_AT_TI_call

        BL        prvAddCurrentTaskToDelayedList ; [DPU_V7M3_PIPE] |1318| 
        ; CALL OCCURS {prvAddCurrentTaskToDelayedList }  ; [] |1318| 
;* --------------------------------------------------------------------------*
||$C$L26||:    
	.dwendtag $C$DW$126

	.dwpsn	file "C:/Tools/Thirdparty/FreeRTOSv202112.00/FreeRTOS/Source/tasks.c",line 1325,column 9,is_stmt,isa 1
$C$DW$129	.dwtag  DW_TAG_TI_branch
	.dwattr $C$DW$129, DW_AT_low_pc(0x00)
	.dwattr $C$DW$129, DW_AT_name("xTaskResumeAll")
	.dwattr $C$DW$129, DW_AT_TI_call

        BL        xTaskResumeAll        ; [DPU_V7M3_PIPE] |1325| 
        ; CALL OCCURS {xTaskResumeAll }  ; [] |1325| 
        STR       A1, [SP, #12]         ; [DPU_V7M3_PIPE] |1325| 
	.dwpsn	file "C:/Tools/Thirdparty/FreeRTOSv202112.00/FreeRTOS/Source/tasks.c",line 1329,column 9,is_stmt,isa 1
        LDR       A1, [SP, #12]         ; [DPU_V7M3_PIPE] |1329| 
        CBNZ      A1, ||$C$L27||        ; [] 
        ; BRANCHCC OCCURS {||$C$L27||}   ; [] |1329| 
;* --------------------------------------------------------------------------*
	.dwpsn	file "C:/Tools/Thirdparty/FreeRTOSv202112.00/FreeRTOS/Source/tasks.c",line 1331,column 13,is_stmt,isa 1
        LDR       A2, $C$CON8           ; [DPU_V7M3_PIPE] |1331| 
        MOV       A1, #268435456        ; [DPU_V7M3_PIPE] |1331| 
        STR       A1, [A2, #0]          ; [DPU_V7M3_PIPE] |1331| 
	dsb
	isb
;* --------------------------------------------------------------------------*
||$C$L27||:    
	.dwpsn	file "C:/Tools/Thirdparty/FreeRTOSv202112.00/FreeRTOS/Source/tasks.c",line 1338,column 9,is_stmt,isa 1
        LDR       A1, [SP, #16]         ; [DPU_V7M3_PIPE] |1338| 
	.dwpsn	file "C:/Tools/Thirdparty/FreeRTOSv202112.00/FreeRTOS/Source/tasks.c",line 1339,column 5,is_stmt,isa 1
        ADD       SP, SP, #28           ; [DPU_V7M3_PIPE] 
	.dwcfi	cfa_offset, 4
$C$DW$130	.dwtag  DW_TAG_TI_branch
	.dwattr $C$DW$130, DW_AT_low_pc(0x00)
	.dwattr $C$DW$130, DW_AT_TI_return

        POP       {PC}                  ; [DPU_V7M3_PIPE] 
	.dwcfi	cfa_offset, 0
        ; BRANCH OCCURS                  ; [] 
	.dwattr $C$DW$117, DW_AT_TI_end_file("C:/Tools/Thirdparty/FreeRTOSv202112.00/FreeRTOS/Source/tasks.c")
	.dwattr $C$DW$117, DW_AT_TI_end_line(0x53b)
	.dwattr $C$DW$117, DW_AT_TI_end_column(0x05)
	.dwendentry
	.dwendtag $C$DW$117

	.sect	".text"
	.clink
	.thumbfunc vTaskDelay
	.thumb
	.global	vTaskDelay

$C$DW$131	.dwtag  DW_TAG_subprogram
	.dwattr $C$DW$131, DW_AT_name("vTaskDelay")
	.dwattr $C$DW$131, DW_AT_low_pc(vTaskDelay)
	.dwattr $C$DW$131, DW_AT_high_pc(0x00)
	.dwattr $C$DW$131, DW_AT_TI_symbol_name("vTaskDelay")
	.dwattr $C$DW$131, DW_AT_external
	.dwattr $C$DW$131, DW_AT_TI_begin_file("C:/Tools/Thirdparty/FreeRTOSv202112.00/FreeRTOS/Source/tasks.c")
	.dwattr $C$DW$131, DW_AT_TI_begin_line(0x542)
	.dwattr $C$DW$131, DW_AT_TI_begin_column(0x0a)
	.dwattr $C$DW$131, DW_AT_decl_file("C:/Tools/Thirdparty/FreeRTOSv202112.00/FreeRTOS/Source/tasks.c")
	.dwattr $C$DW$131, DW_AT_decl_line(0x542)
	.dwattr $C$DW$131, DW_AT_decl_column(0x0a)
	.dwattr $C$DW$131, DW_AT_TI_max_frame_size(0x10)
	.dwpsn	file "C:/Tools/Thirdparty/FreeRTOSv202112.00/FreeRTOS/Source/tasks.c",line 1347,column 5,is_stmt,address vTaskDelay,isa 1

	.dwfde $C$DW$CIE, vTaskDelay
$C$DW$132	.dwtag  DW_TAG_formal_parameter
	.dwattr $C$DW$132, DW_AT_name("xTicksToDelay")
	.dwattr $C$DW$132, DW_AT_TI_symbol_name("xTicksToDelay")
	.dwattr $C$DW$132, DW_AT_type(*$C$DW$T$144)
	.dwattr $C$DW$132, DW_AT_location[DW_OP_reg0]


;*****************************************************************************
;* FUNCTION NAME: vTaskDelay                                                 *
;*                                                                           *
;*   Regs Modified     : A1,A2,A3,A4,V9,SP,LR,SR,D0,D0_hi,D1,D1_hi,D2,D2_hi, *
;*                           D3,D3_hi,D4,D4_hi,D5,D5_hi,D6,D6_hi,D7,D7_hi,   *
;*                           FPEXC,FPSCR                                     *
;*   Regs Used         : A1,A2,A3,A4,V9,SP,LR,SR,D0,D0_hi,D1,D1_hi,D2,D2_hi, *
;*                           D3,D3_hi,D4,D4_hi,D5,D5_hi,D6,D6_hi,D7,D7_hi,   *
;*                           FPEXC,FPSCR                                     *
;*   Local Frame Size  : 0 Args + 8 Auto + 4 Save = 12 byte                  *
;*****************************************************************************
vTaskDelay:
;* --------------------------------------------------------------------------*
	.dwcfi	cfa_offset, 0
        PUSH      {A2, A3, A4, LR}      ; [DPU_V7M3_PIPE] 
	.dwcfi	cfa_offset, 16
	.dwcfi	save_reg_to_mem, 14, -4
	.dwcfi	save_reg_to_mem, 3, -8
	.dwcfi	save_reg_to_mem, 2, -12
	.dwcfi	save_reg_to_mem, 1, -16
$C$DW$133	.dwtag  DW_TAG_variable
	.dwattr $C$DW$133, DW_AT_name("xTicksToDelay")
	.dwattr $C$DW$133, DW_AT_TI_symbol_name("xTicksToDelay")
	.dwattr $C$DW$133, DW_AT_type(*$C$DW$T$144)
	.dwattr $C$DW$133, DW_AT_location[DW_OP_breg13 0]

$C$DW$134	.dwtag  DW_TAG_variable
	.dwattr $C$DW$134, DW_AT_name("xAlreadyYielded")
	.dwattr $C$DW$134, DW_AT_TI_symbol_name("xAlreadyYielded")
	.dwattr $C$DW$134, DW_AT_type(*$C$DW$T$98)
	.dwattr $C$DW$134, DW_AT_location[DW_OP_breg13 4]

        STR       A1, [SP, #0]          ; [DPU_V7M3_PIPE] |1347| 
	.dwpsn	file "C:/Tools/Thirdparty/FreeRTOSv202112.00/FreeRTOS/Source/tasks.c",line 1348,column 36,is_stmt,isa 1
        MOVS      A1, #0                ; [DPU_V7M3_PIPE] |1348| 
        STR       A1, [SP, #4]          ; [DPU_V7M3_PIPE] |1348| 
	.dwpsn	file "C:/Tools/Thirdparty/FreeRTOSv202112.00/FreeRTOS/Source/tasks.c",line 1351,column 9,is_stmt,isa 1
        LDR       A1, [SP, #0]          ; [DPU_V7M3_PIPE] |1351| 
        CBZ       A1, ||$C$L28||        ; [] 
        ; BRANCHCC OCCURS {||$C$L28||}   ; [] |1351| 
;* --------------------------------------------------------------------------*
	.dwpsn	file "C:/Tools/Thirdparty/FreeRTOSv202112.00/FreeRTOS/Source/tasks.c",line 1354,column 13,is_stmt,isa 1
$C$DW$135	.dwtag  DW_TAG_TI_branch
	.dwattr $C$DW$135, DW_AT_low_pc(0x00)
	.dwattr $C$DW$135, DW_AT_name("vTaskSuspendAll")
	.dwattr $C$DW$135, DW_AT_TI_call

        BL        vTaskSuspendAll       ; [DPU_V7M3_PIPE] |1354| 
        ; CALL OCCURS {vTaskSuspendAll }  ; [] |1354| 
	.dwpsn	file "C:/Tools/Thirdparty/FreeRTOSv202112.00/FreeRTOS/Source/tasks.c",line 1365,column 17,is_stmt,isa 1
        LDR       A1, [SP, #0]          ; [DPU_V7M3_PIPE] |1365| 
        MOVS      A2, #0                ; [DPU_V7M3_PIPE] |1365| 
$C$DW$136	.dwtag  DW_TAG_TI_branch
	.dwattr $C$DW$136, DW_AT_low_pc(0x00)
	.dwattr $C$DW$136, DW_AT_name("prvAddCurrentTaskToDelayedList")
	.dwattr $C$DW$136, DW_AT_TI_call

        BL        prvAddCurrentTaskToDelayedList ; [DPU_V7M3_PIPE] |1365| 
        ; CALL OCCURS {prvAddCurrentTaskToDelayedList }  ; [] |1365| 
	.dwpsn	file "C:/Tools/Thirdparty/FreeRTOSv202112.00/FreeRTOS/Source/tasks.c",line 1367,column 13,is_stmt,isa 1
$C$DW$137	.dwtag  DW_TAG_TI_branch
	.dwattr $C$DW$137, DW_AT_low_pc(0x00)
	.dwattr $C$DW$137, DW_AT_name("xTaskResumeAll")
	.dwattr $C$DW$137, DW_AT_TI_call

        BL        xTaskResumeAll        ; [DPU_V7M3_PIPE] |1367| 
        ; CALL OCCURS {xTaskResumeAll }  ; [] |1367| 
        STR       A1, [SP, #4]          ; [DPU_V7M3_PIPE] |1367| 
;* --------------------------------------------------------------------------*
||$C$L28||:    
	.dwpsn	file "C:/Tools/Thirdparty/FreeRTOSv202112.00/FreeRTOS/Source/tasks.c",line 1376,column 9,is_stmt,isa 1
        LDR       A1, [SP, #4]          ; [DPU_V7M3_PIPE] |1376| 
        CBNZ      A1, ||$C$L29||        ; [] 
        ; BRANCHCC OCCURS {||$C$L29||}   ; [] |1376| 
;* --------------------------------------------------------------------------*
	.dwpsn	file "C:/Tools/Thirdparty/FreeRTOSv202112.00/FreeRTOS/Source/tasks.c",line 1378,column 13,is_stmt,isa 1
        LDR       A2, $C$CON8           ; [DPU_V7M3_PIPE] |1378| 
        MOV       A1, #268435456        ; [DPU_V7M3_PIPE] |1378| 
        STR       A1, [A2, #0]          ; [DPU_V7M3_PIPE] |1378| 
	dsb
	isb
        B         ||$C$L29||            ; [DPU_V7M3_PIPE] 
        ; BRANCH OCCURS {||$C$L29||}     ; [] 
;* --------------------------------------------------------------------------*
;* --------------------------------------------------------------------------*
||$C$L29||:    
$C$DW$138	.dwtag  DW_TAG_TI_branch
	.dwattr $C$DW$138, DW_AT_low_pc(0x00)
	.dwattr $C$DW$138, DW_AT_TI_return

        POP       {A2, A3, A4, PC}      ; [DPU_V7M3_PIPE] 
	.dwcfi	cfa_offset, 0
	.dwcfi	restore_reg, 3
	.dwcfi	restore_reg, 2
	.dwcfi	restore_reg, 1
        ; BRANCH OCCURS                  ; [] 
	.dwattr $C$DW$131, DW_AT_TI_end_file("C:/Tools/Thirdparty/FreeRTOSv202112.00/FreeRTOS/Source/tasks.c")
	.dwattr $C$DW$131, DW_AT_TI_end_line(0x568)
	.dwattr $C$DW$131, DW_AT_TI_end_column(0x05)
	.dwendentry
	.dwendtag $C$DW$131

;******************************************************************************
;* CONSTANT TABLE                                                             *
;******************************************************************************
	.sect	".text"
	.align	4
||$C$CON1||:	.bits	uxCurrentNumberOfTasks,32
	.align	4
||$C$CON3||:	.bits	xSchedulerRunning,32
	.align	4
||$C$CON4||:	.bits	uxTaskNumber,32
	.align	4
||$C$CON5||:	.bits	uxTopReadyPriority,32
	.align	4
||$C$CON6||:	.bits	pxReadyTasksLists+4,32
	.align	4
||$C$CON7||:	.bits	pxReadyTasksLists,32
	.sect	".text"
	.clink
	.thumbfunc eTaskGetState
	.thumb
	.global	eTaskGetState

$C$DW$139	.dwtag  DW_TAG_subprogram
	.dwattr $C$DW$139, DW_AT_name("eTaskGetState")
	.dwattr $C$DW$139, DW_AT_low_pc(eTaskGetState)
	.dwattr $C$DW$139, DW_AT_high_pc(0x00)
	.dwattr $C$DW$139, DW_AT_TI_symbol_name("eTaskGetState")
	.dwattr $C$DW$139, DW_AT_external
	.dwattr $C$DW$139, DW_AT_type(*$C$DW$T$96)
	.dwattr $C$DW$139, DW_AT_TI_begin_file("C:/Tools/Thirdparty/FreeRTOSv202112.00/FreeRTOS/Source/tasks.c")
	.dwattr $C$DW$139, DW_AT_TI_begin_line(0x56f)
	.dwattr $C$DW$139, DW_AT_TI_begin_column(0x10)
	.dwattr $C$DW$139, DW_AT_decl_file("C:/Tools/Thirdparty/FreeRTOSv202112.00/FreeRTOS/Source/tasks.c")
	.dwattr $C$DW$139, DW_AT_decl_line(0x56f)
	.dwattr $C$DW$139, DW_AT_decl_column(0x10)
	.dwattr $C$DW$139, DW_AT_TI_max_frame_size(0x20)
	.dwpsn	file "C:/Tools/Thirdparty/FreeRTOSv202112.00/FreeRTOS/Source/tasks.c",line 1392,column 5,is_stmt,address eTaskGetState,isa 1

	.dwfde $C$DW$CIE, eTaskGetState
$C$DW$140	.dwtag  DW_TAG_formal_parameter
	.dwattr $C$DW$140, DW_AT_name("xTask")
	.dwattr $C$DW$140, DW_AT_TI_symbol_name("xTask")
	.dwattr $C$DW$140, DW_AT_type(*$C$DW$T$94)
	.dwattr $C$DW$140, DW_AT_location[DW_OP_reg0]


;*****************************************************************************
;* FUNCTION NAME: eTaskGetState                                              *
;*                                                                           *
;*   Regs Modified     : A1,A2,A3,A4,V9,SP,LR,SR,D0,D0_hi,D1,D1_hi,D2,D2_hi, *
;*                           D3,D3_hi,D4,D4_hi,D5,D5_hi,D6,D6_hi,D7,D7_hi,   *
;*                           FPEXC,FPSCR                                     *
;*   Regs Used         : A1,A2,A3,A4,V9,SP,LR,SR,D0,D0_hi,D1,D1_hi,D2,D2_hi, *
;*                           D3,D3_hi,D4,D4_hi,D5,D5_hi,D6,D6_hi,D7,D7_hi,   *
;*                           FPEXC,FPSCR                                     *
;*   Local Frame Size  : 0 Args + 28 Auto + 4 Save = 32 byte                 *
;*****************************************************************************
eTaskGetState:
;* --------------------------------------------------------------------------*
	.dwcfi	cfa_offset, 0
        PUSH      {LR}                  ; [DPU_V7M3_PIPE] 
	.dwcfi	cfa_offset, 4
	.dwcfi	save_reg_to_mem, 14, -4
        SUB       SP, SP, #28           ; [DPU_V7M3_PIPE] 
	.dwcfi	cfa_offset, 32
$C$DW$141	.dwtag  DW_TAG_variable
	.dwattr $C$DW$141, DW_AT_name("xTask")
	.dwattr $C$DW$141, DW_AT_TI_symbol_name("xTask")
	.dwattr $C$DW$141, DW_AT_type(*$C$DW$T$94)
	.dwattr $C$DW$141, DW_AT_location[DW_OP_breg13 0]

$C$DW$142	.dwtag  DW_TAG_variable
	.dwattr $C$DW$142, DW_AT_name("pxStateList")
	.dwattr $C$DW$142, DW_AT_TI_symbol_name("pxStateList")
	.dwattr $C$DW$142, DW_AT_type(*$C$DW$T$288)
	.dwattr $C$DW$142, DW_AT_location[DW_OP_breg13 4]

$C$DW$143	.dwtag  DW_TAG_variable
	.dwattr $C$DW$143, DW_AT_name("pxDelayedList")
	.dwattr $C$DW$143, DW_AT_TI_symbol_name("pxDelayedList")
	.dwattr $C$DW$143, DW_AT_type(*$C$DW$T$288)
	.dwattr $C$DW$143, DW_AT_location[DW_OP_breg13 8]

$C$DW$144	.dwtag  DW_TAG_variable
	.dwattr $C$DW$144, DW_AT_name("pxOverflowedDelayedList")
	.dwattr $C$DW$144, DW_AT_TI_symbol_name("pxOverflowedDelayedList")
	.dwattr $C$DW$144, DW_AT_type(*$C$DW$T$288)
	.dwattr $C$DW$144, DW_AT_location[DW_OP_breg13 12]

$C$DW$145	.dwtag  DW_TAG_variable
	.dwattr $C$DW$145, DW_AT_name("pxTCB")
	.dwattr $C$DW$145, DW_AT_TI_symbol_name("pxTCB")
	.dwattr $C$DW$145, DW_AT_type(*$C$DW$T$354)
	.dwattr $C$DW$145, DW_AT_location[DW_OP_breg13 16]

$C$DW$146	.dwtag  DW_TAG_variable
	.dwattr $C$DW$146, DW_AT_name("eReturn")
	.dwattr $C$DW$146, DW_AT_TI_symbol_name("eReturn")
	.dwattr $C$DW$146, DW_AT_type(*$C$DW$T$96)
	.dwattr $C$DW$146, DW_AT_location[DW_OP_breg13 20]

        STR       A1, [SP, #0]          ; [DPU_V7M3_PIPE] |1392| 
	.dwpsn	file "C:/Tools/Thirdparty/FreeRTOSv202112.00/FreeRTOS/Source/tasks.c",line 1395,column 35,is_stmt,isa 1
        LDR       A1, [SP, #0]          ; [DPU_V7M3_PIPE] |1395| 
        STR       A1, [SP, #16]         ; [DPU_V7M3_PIPE] |1395| 

$C$DW$147	.dwtag  DW_TAG_lexical_block
	.dwattr $C$DW$147, DW_AT_low_pc(0x00)
	.dwattr $C$DW$147, DW_AT_high_pc(0x00)
	.dwpsn	file "C:/Tools/Thirdparty/FreeRTOSv202112.00/FreeRTOS/Source/tasks.c",line 1399,column 9,is_stmt,isa 1
        LDR       A1, $C$CON2           ; [DPU_V7M3_PIPE] |1399| 
        LDR       A2, [SP, #16]         ; [DPU_V7M3_PIPE] |1399| 
        LDR       A1, [A1, #0]          ; [DPU_V7M3_PIPE] |1399| 
        CMP       A1, A2                ; [DPU_V7M3_PIPE] |1399| 
        BNE       ||$C$L30||            ; [DPU_V7M3_PIPE] |1399| 
        ; BRANCHCC OCCURS {||$C$L30||}   ; [] |1399| 
;* --------------------------------------------------------------------------*
	.dwpsn	file "C:/Tools/Thirdparty/FreeRTOSv202112.00/FreeRTOS/Source/tasks.c",line 1402,column 13,is_stmt,isa 1
        MOVS      A1, #0                ; [DPU_V7M3_PIPE] |1402| 
        STRB      A1, [SP, #20]         ; [DPU_V7M3_PIPE] |1402| 
        B         ||$C$L41||            ; [DPU_V7M3_PIPE] 
        ; BRANCH OCCURS {||$C$L41||}     ; [] 
;******************************************************************************
;* CONSTANT TABLE                                                             *
;******************************************************************************
	.sect	".text"
	.align	4
||$C$CON2||:	.bits	pxCurrentTCB,32
;* --------------------------------------------------------------------------*
||$C$L30||:    

$C$DW$148	.dwtag  DW_TAG_lexical_block
	.dwattr $C$DW$148, DW_AT_low_pc(0x00)
	.dwattr $C$DW$148, DW_AT_high_pc(0x00)
	.dwpsn	file "C:/Tools/Thirdparty/FreeRTOSv202112.00/FreeRTOS/Source/tasks.c",line 1406,column 13,is_stmt,isa 1
$C$DW$149	.dwtag  DW_TAG_TI_branch
	.dwattr $C$DW$149, DW_AT_low_pc(0x00)
	.dwattr $C$DW$149, DW_AT_name("vPortEnterCritical")
	.dwattr $C$DW$149, DW_AT_TI_call

        BL        vPortEnterCritical    ; [DPU_V7M3_PIPE] |1406| 
        ; CALL OCCURS {vPortEnterCritical }  ; [] |1406| 
	.dwpsn	file "C:/Tools/Thirdparty/FreeRTOSv202112.00/FreeRTOS/Source/tasks.c",line 1408,column 17,is_stmt,isa 1
        LDR       A1, [SP, #16]         ; [DPU_V7M3_PIPE] |1408| 
        LDR       A1, [A1, #20]         ; [DPU_V7M3_PIPE] |1408| 
        STR       A1, [SP, #4]          ; [DPU_V7M3_PIPE] |1408| 
	.dwpsn	file "C:/Tools/Thirdparty/FreeRTOSv202112.00/FreeRTOS/Source/tasks.c",line 1409,column 17,is_stmt,isa 1
        LDR       A1, $C$CON12          ; [DPU_V7M3_PIPE] |1409| 
        LDR       A1, [A1, #0]          ; [DPU_V7M3_PIPE] |1409| 
        STR       A1, [SP, #8]          ; [DPU_V7M3_PIPE] |1409| 
	.dwpsn	file "C:/Tools/Thirdparty/FreeRTOSv202112.00/FreeRTOS/Source/tasks.c",line 1410,column 17,is_stmt,isa 1
        LDR       A1, $C$CON13          ; [DPU_V7M3_PIPE] |1410| 
        LDR       A1, [A1, #0]          ; [DPU_V7M3_PIPE] |1410| 
        STR       A1, [SP, #12]         ; [DPU_V7M3_PIPE] |1410| 
	.dwpsn	file "C:/Tools/Thirdparty/FreeRTOSv202112.00/FreeRTOS/Source/tasks.c",line 1412,column 13,is_stmt,isa 1
$C$DW$150	.dwtag  DW_TAG_TI_branch
	.dwattr $C$DW$150, DW_AT_low_pc(0x00)
	.dwattr $C$DW$150, DW_AT_name("vPortExitCritical")
	.dwattr $C$DW$150, DW_AT_TI_call

        BL        vPortExitCritical     ; [DPU_V7M3_PIPE] |1412| 
        ; CALL OCCURS {vPortExitCritical }  ; [] |1412| 

$C$DW$151	.dwtag  DW_TAG_lexical_block
	.dwattr $C$DW$151, DW_AT_low_pc(0x00)
	.dwattr $C$DW$151, DW_AT_high_pc(0x00)
	.dwpsn	file "C:/Tools/Thirdparty/FreeRTOSv202112.00/FreeRTOS/Source/tasks.c",line 1414,column 13,is_stmt,isa 1
        LDR       A1, [SP, #8]          ; [DPU_V7M3_PIPE] |1414| 
        LDR       A2, [SP, #4]          ; [DPU_V7M3_PIPE] |1414| 
        CMP       A1, A2                ; [DPU_V7M3_PIPE] |1414| 
        BEQ       ||$C$L31||            ; [DPU_V7M3_PIPE] |1414| 
        ; BRANCHCC OCCURS {||$C$L31||}   ; [] |1414| 
;* --------------------------------------------------------------------------*
        LDR       A1, [SP, #12]         ; [DPU_V7M3_PIPE] |1414| 
        LDR       A2, [SP, #4]          ; [DPU_V7M3_PIPE] |1414| 
        CMP       A1, A2                ; [DPU_V7M3_PIPE] |1414| 
        BNE       ||$C$L32||            ; [DPU_V7M3_PIPE] |1414| 
        ; BRANCHCC OCCURS {||$C$L32||}   ; [] |1414| 
;* --------------------------------------------------------------------------*
||$C$L31||:    
	.dwpsn	file "C:/Tools/Thirdparty/FreeRTOSv202112.00/FreeRTOS/Source/tasks.c",line 1418,column 17,is_stmt,isa 1
        MOVS      A1, #2                ; [DPU_V7M3_PIPE] |1418| 
        STRB      A1, [SP, #20]         ; [DPU_V7M3_PIPE] |1418| 
        B         ||$C$L40||            ; [DPU_V7M3_PIPE] 
        ; BRANCH OCCURS {||$C$L40||}     ; [] 
;* --------------------------------------------------------------------------*
||$C$L32||:    

$C$DW$152	.dwtag  DW_TAG_lexical_block
	.dwattr $C$DW$152, DW_AT_low_pc(0x00)
	.dwattr $C$DW$152, DW_AT_high_pc(0x00)

$C$DW$153	.dwtag  DW_TAG_lexical_block
	.dwattr $C$DW$153, DW_AT_low_pc(0x00)
	.dwattr $C$DW$153, DW_AT_high_pc(0x00)
	.dwpsn	file "C:/Tools/Thirdparty/FreeRTOSv202112.00/FreeRTOS/Source/tasks.c",line 1422,column 22,is_stmt,isa 1
        LDR       A2, $C$CON14          ; [DPU_V7M3_PIPE] |1422| 
        LDR       A1, [SP, #4]          ; [DPU_V7M3_PIPE] |1422| 
        CMP       A2, A1                ; [DPU_V7M3_PIPE] |1422| 
        BNE       ||$C$L36||            ; [DPU_V7M3_PIPE] |1422| 
        ; BRANCHCC OCCURS {||$C$L36||}   ; [] |1422| 
;* --------------------------------------------------------------------------*

$C$DW$154	.dwtag  DW_TAG_lexical_block
	.dwattr $C$DW$154, DW_AT_low_pc(0x00)
	.dwattr $C$DW$154, DW_AT_high_pc(0x00)

$C$DW$155	.dwtag  DW_TAG_lexical_block
	.dwattr $C$DW$155, DW_AT_low_pc(0x00)
	.dwattr $C$DW$155, DW_AT_high_pc(0x00)
	.dwpsn	file "C:/Tools/Thirdparty/FreeRTOSv202112.00/FreeRTOS/Source/tasks.c",line 1427,column 21,is_stmt,isa 1
        LDR       A1, [SP, #16]         ; [DPU_V7M3_PIPE] |1427| 
        LDR       A1, [A1, #40]         ; [DPU_V7M3_PIPE] |1427| 
        CBNZ      A1, ||$C$L35||        ; [] 
        ; BRANCHCC OCCURS {||$C$L35||}   ; [] |1427| 
;* --------------------------------------------------------------------------*

$C$DW$156	.dwtag  DW_TAG_lexical_block
	.dwattr $C$DW$156, DW_AT_low_pc(0x00)
	.dwattr $C$DW$156, DW_AT_high_pc(0x00)

$C$DW$157	.dwtag  DW_TAG_lexical_block
	.dwattr $C$DW$157, DW_AT_low_pc(0x00)
	.dwattr $C$DW$157, DW_AT_high_pc(0x00)
$C$DW$158	.dwtag  DW_TAG_variable
	.dwattr $C$DW$158, DW_AT_name("x")
	.dwattr $C$DW$158, DW_AT_TI_symbol_name("x")
	.dwattr $C$DW$158, DW_AT_type(*$C$DW$T$98)
	.dwattr $C$DW$158, DW_AT_location[DW_OP_breg13 24]

	.dwpsn	file "C:/Tools/Thirdparty/FreeRTOSv202112.00/FreeRTOS/Source/tasks.c",line 1438,column 33,is_stmt,isa 1
        MOVS      A1, #3                ; [DPU_V7M3_PIPE] |1438| 
        STRB      A1, [SP, #20]         ; [DPU_V7M3_PIPE] |1438| 
	.dwpsn	file "C:/Tools/Thirdparty/FreeRTOSv202112.00/FreeRTOS/Source/tasks.c",line 1440,column 38,is_stmt,isa 1
        MOVS      A1, #0                ; [DPU_V7M3_PIPE] |1440| 
        STR       A1, [SP, #24]         ; [DPU_V7M3_PIPE] |1440| 
	.dwpsn	file "C:/Tools/Thirdparty/FreeRTOSv202112.00/FreeRTOS/Source/tasks.c",line 1440,column 45,is_stmt,isa 1
        LDR       A1, [SP, #24]         ; [DPU_V7M3_PIPE] |1440| 
        CMP       A1, #0                ; [DPU_V7M3_PIPE] |1440| 
        BGT       ||$C$L39||            ; [DPU_V7M3_PIPE] |1440| 
        ; BRANCHCC OCCURS {||$C$L39||}   ; [] |1440| 
;* --------------------------------------------------------------------------*
;*   BEGIN LOOP ||$C$L33||
;*
;*   Loop source line                : 1440
;*   Loop closing brace source line  : 1447
;*   Known Minimum Trip Count        : 1
;*   Known Maximum Trip Count        : 4294967295
;*   Known Max Trip Count Factor     : 1
;* --------------------------------------------------------------------------*
||$C$L33||:    
	.dwpsn	file "C:/Tools/Thirdparty/FreeRTOSv202112.00/FreeRTOS/Source/tasks.c",line 1442,column 37,is_stmt,isa 1
        LDR       A2, [SP, #24]         ; [DPU_V7M3_PIPE] |1442| 
        LDR       A1, [SP, #16]         ; [DPU_V7M3_PIPE] |1442| 
        ADDS      A1, A1, A2            ; [DPU_V7M3_PIPE] |1442| 
        LDRB      A1, [A1, #96]         ; [DPU_V7M3_PIPE] |1442| 
        CMP       A1, #1                ; [DPU_V7M3_PIPE] |1442| 
        BNE       ||$C$L34||            ; [DPU_V7M3_PIPE] |1442| 
        ; BRANCHCC OCCURS {||$C$L34||}   ; [] |1442| 
;* --------------------------------------------------------------------------*
	.dwpsn	file "C:/Tools/Thirdparty/FreeRTOSv202112.00/FreeRTOS/Source/tasks.c",line 1444,column 41,is_stmt,isa 1
        MOVS      A1, #2                ; [DPU_V7M3_PIPE] |1444| 
        STRB      A1, [SP, #20]         ; [DPU_V7M3_PIPE] |1444| 
	.dwpsn	file "C:/Tools/Thirdparty/FreeRTOSv202112.00/FreeRTOS/Source/tasks.c",line 1445,column 41,is_stmt,isa 1
        B         ||$C$L39||            ; [DPU_V7M3_PIPE] |1445| 
        ; BRANCH OCCURS {||$C$L39||}     ; [] |1445| 
;* --------------------------------------------------------------------------*
||$C$L34||:    
	.dwpsn	file "C:/Tools/Thirdparty/FreeRTOSv202112.00/FreeRTOS/Source/tasks.c",line 1440,column 88,is_stmt,isa 1
        LDR       A1, [SP, #24]         ; [DPU_V7M3_PIPE] |1440| 
        ADDS      A1, A1, #1            ; [DPU_V7M3_PIPE] |1440| 
        STR       A1, [SP, #24]         ; [DPU_V7M3_PIPE] |1440| 
	.dwpsn	file "C:/Tools/Thirdparty/FreeRTOSv202112.00/FreeRTOS/Source/tasks.c",line 1440,column 45,is_stmt,isa 1
        LDR       A1, [SP, #24]         ; [DPU_V7M3_PIPE] |1440| 
        CMP       A1, #0                ; [DPU_V7M3_PIPE] |1440| 
        BLE       ||$C$L33||            ; [DPU_V7M3_PIPE] |1440| 
        ; BRANCHCC OCCURS {||$C$L33||}   ; [] |1440| 
;* --------------------------------------------------------------------------*
	.dwendtag $C$DW$157

	.dwendtag $C$DW$156

        B         ||$C$L39||            ; [DPU_V7M3_PIPE] 
        ; BRANCH OCCURS {||$C$L39||}     ; [] 
;* --------------------------------------------------------------------------*
||$C$L35||:    
	.dwpsn	file "C:/Tools/Thirdparty/FreeRTOSv202112.00/FreeRTOS/Source/tasks.c",line 1457,column 25,is_stmt,isa 1
        MOVS      A1, #2                ; [DPU_V7M3_PIPE] |1457| 
        STRB      A1, [SP, #20]         ; [DPU_V7M3_PIPE] |1457| 
	.dwendtag $C$DW$155

	.dwendtag $C$DW$154

        B         ||$C$L39||            ; [DPU_V7M3_PIPE] 
        ; BRANCH OCCURS {||$C$L39||}     ; [] 
;* --------------------------------------------------------------------------*
||$C$L36||:    
	.dwpsn	file "C:/Tools/Thirdparty/FreeRTOSv202112.00/FreeRTOS/Source/tasks.c",line 1463,column 22,is_stmt,isa 1
        LDR       A2, $C$CON9           ; [DPU_V7M3_PIPE] |1463| 
        LDR       A1, [SP, #4]          ; [DPU_V7M3_PIPE] |1463| 
        CMP       A2, A1                ; [DPU_V7M3_PIPE] |1463| 
        BEQ       ||$C$L37||            ; [DPU_V7M3_PIPE] |1463| 
        ; BRANCHCC OCCURS {||$C$L37||}   ; [] |1463| 
;* --------------------------------------------------------------------------*
        LDR       A1, [SP, #4]          ; [DPU_V7M3_PIPE] |1463| 
        CBNZ      A1, ||$C$L38||        ; [] 
        ; BRANCHCC OCCURS {||$C$L38||}   ; [] |1463| 
;* --------------------------------------------------------------------------*
||$C$L37||:    
	.dwpsn	file "C:/Tools/Thirdparty/FreeRTOSv202112.00/FreeRTOS/Source/tasks.c",line 1468,column 21,is_stmt,isa 1
        MOVS      A1, #4                ; [DPU_V7M3_PIPE] |1468| 
        STRB      A1, [SP, #20]         ; [DPU_V7M3_PIPE] |1468| 
        B         ||$C$L39||            ; [DPU_V7M3_PIPE] 
        ; BRANCH OCCURS {||$C$L39||}     ; [] 
;* --------------------------------------------------------------------------*
||$C$L38||:    
	.dwpsn	file "C:/Tools/Thirdparty/FreeRTOSv202112.00/FreeRTOS/Source/tasks.c",line 1476,column 17,is_stmt,isa 1
        MOVS      A1, #1                ; [DPU_V7M3_PIPE] |1476| 
        STRB      A1, [SP, #20]         ; [DPU_V7M3_PIPE] |1476| 
;* --------------------------------------------------------------------------*
||$C$L39||:    
	.dwendtag $C$DW$153

	.dwendtag $C$DW$152

;* --------------------------------------------------------------------------*
||$C$L40||:    
	.dwendtag $C$DW$151

	.dwendtag $C$DW$148

;* --------------------------------------------------------------------------*
||$C$L41||:    
	.dwendtag $C$DW$147

	.dwpsn	file "C:/Tools/Thirdparty/FreeRTOSv202112.00/FreeRTOS/Source/tasks.c",line 1480,column 9,is_stmt,isa 1
        LDRB      A1, [SP, #20]         ; [DPU_V7M3_PIPE] |1480| 
	.dwpsn	file "C:/Tools/Thirdparty/FreeRTOSv202112.00/FreeRTOS/Source/tasks.c",line 1481,column 5,is_stmt,isa 1
        ADD       SP, SP, #28           ; [DPU_V7M3_PIPE] 
	.dwcfi	cfa_offset, 4
$C$DW$159	.dwtag  DW_TAG_TI_branch
	.dwattr $C$DW$159, DW_AT_low_pc(0x00)
	.dwattr $C$DW$159, DW_AT_TI_return

        POP       {PC}                  ; [DPU_V7M3_PIPE] 
	.dwcfi	cfa_offset, 0
        ; BRANCH OCCURS                  ; [] 
	.dwattr $C$DW$139, DW_AT_TI_end_file("C:/Tools/Thirdparty/FreeRTOSv202112.00/FreeRTOS/Source/tasks.c")
	.dwattr $C$DW$139, DW_AT_TI_end_line(0x5c9)
	.dwattr $C$DW$139, DW_AT_TI_end_column(0x05)
	.dwendentry
	.dwendtag $C$DW$139

	.sect	".text"
	.clink
	.thumbfunc uxTaskPriorityGet
	.thumb
	.global	uxTaskPriorityGet

$C$DW$160	.dwtag  DW_TAG_subprogram
	.dwattr $C$DW$160, DW_AT_name("uxTaskPriorityGet")
	.dwattr $C$DW$160, DW_AT_low_pc(uxTaskPriorityGet)
	.dwattr $C$DW$160, DW_AT_high_pc(0x00)
	.dwattr $C$DW$160, DW_AT_TI_symbol_name("uxTaskPriorityGet")
	.dwattr $C$DW$160, DW_AT_external
	.dwattr $C$DW$160, DW_AT_type(*$C$DW$T$27)
	.dwattr $C$DW$160, DW_AT_TI_begin_file("C:/Tools/Thirdparty/FreeRTOSv202112.00/FreeRTOS/Source/tasks.c")
	.dwattr $C$DW$160, DW_AT_TI_begin_line(0x5d0)
	.dwattr $C$DW$160, DW_AT_TI_begin_column(0x11)
	.dwattr $C$DW$160, DW_AT_decl_file("C:/Tools/Thirdparty/FreeRTOSv202112.00/FreeRTOS/Source/tasks.c")
	.dwattr $C$DW$160, DW_AT_decl_line(0x5d0)
	.dwattr $C$DW$160, DW_AT_decl_column(0x11)
	.dwattr $C$DW$160, DW_AT_TI_max_frame_size(0x10)
	.dwpsn	file "C:/Tools/Thirdparty/FreeRTOSv202112.00/FreeRTOS/Source/tasks.c",line 1489,column 5,is_stmt,address uxTaskPriorityGet,isa 1

	.dwfde $C$DW$CIE, uxTaskPriorityGet
$C$DW$161	.dwtag  DW_TAG_formal_parameter
	.dwattr $C$DW$161, DW_AT_name("xTask")
	.dwattr $C$DW$161, DW_AT_TI_symbol_name("xTask")
	.dwattr $C$DW$161, DW_AT_type(*$C$DW$T$163)
	.dwattr $C$DW$161, DW_AT_location[DW_OP_reg0]


;*****************************************************************************
;* FUNCTION NAME: uxTaskPriorityGet                                          *
;*                                                                           *
;*   Regs Modified     : A1,A2,A3,A4,V9,SP,LR,SR,D0,D0_hi,D1,D1_hi,D2,D2_hi, *
;*                           D3,D3_hi,D4,D4_hi,D5,D5_hi,D6,D6_hi,D7,D7_hi,   *
;*                           FPEXC,FPSCR                                     *
;*   Regs Used         : A1,A2,A3,A4,V9,SP,LR,SR,D0,D0_hi,D1,D1_hi,D2,D2_hi, *
;*                           D3,D3_hi,D4,D4_hi,D5,D5_hi,D6,D6_hi,D7,D7_hi,   *
;*                           FPEXC,FPSCR                                     *
;*   Local Frame Size  : 0 Args + 12 Auto + 4 Save = 16 byte                 *
;*****************************************************************************
uxTaskPriorityGet:
;* --------------------------------------------------------------------------*
	.dwcfi	cfa_offset, 0
        PUSH      {A2, A3, A4, LR}      ; [DPU_V7M3_PIPE] 
	.dwcfi	cfa_offset, 16
	.dwcfi	save_reg_to_mem, 14, -4
	.dwcfi	save_reg_to_mem, 3, -8
	.dwcfi	save_reg_to_mem, 2, -12
	.dwcfi	save_reg_to_mem, 1, -16
$C$DW$162	.dwtag  DW_TAG_variable
	.dwattr $C$DW$162, DW_AT_name("xTask")
	.dwattr $C$DW$162, DW_AT_TI_symbol_name("xTask")
	.dwattr $C$DW$162, DW_AT_type(*$C$DW$T$163)
	.dwattr $C$DW$162, DW_AT_location[DW_OP_breg13 0]

$C$DW$163	.dwtag  DW_TAG_variable
	.dwattr $C$DW$163, DW_AT_name("pxTCB")
	.dwattr $C$DW$163, DW_AT_TI_symbol_name("pxTCB")
	.dwattr $C$DW$163, DW_AT_type(*$C$DW$T$353)
	.dwattr $C$DW$163, DW_AT_location[DW_OP_breg13 4]

$C$DW$164	.dwtag  DW_TAG_variable
	.dwattr $C$DW$164, DW_AT_name("uxReturn")
	.dwattr $C$DW$164, DW_AT_TI_symbol_name("uxReturn")
	.dwattr $C$DW$164, DW_AT_type(*$C$DW$T$27)
	.dwattr $C$DW$164, DW_AT_location[DW_OP_breg13 8]

        STR       A1, [SP, #0]          ; [DPU_V7M3_PIPE] |1489| 
	.dwpsn	file "C:/Tools/Thirdparty/FreeRTOSv202112.00/FreeRTOS/Source/tasks.c",line 1493,column 9,is_stmt,isa 1
$C$DW$165	.dwtag  DW_TAG_TI_branch
	.dwattr $C$DW$165, DW_AT_low_pc(0x00)
	.dwattr $C$DW$165, DW_AT_name("vPortEnterCritical")
	.dwattr $C$DW$165, DW_AT_TI_call

        BL        vPortEnterCritical    ; [DPU_V7M3_PIPE] |1493| 
        ; CALL OCCURS {vPortEnterCritical }  ; [] |1493| 
	.dwpsn	file "C:/Tools/Thirdparty/FreeRTOSv202112.00/FreeRTOS/Source/tasks.c",line 1497,column 13,is_stmt,isa 1
        LDR       A1, [SP, #0]          ; [DPU_V7M3_PIPE] |1497| 
        CBNZ      A1, ||$C$L42||        ; [] 
        ; BRANCHCC OCCURS {||$C$L42||}   ; [] |1497| 
;* --------------------------------------------------------------------------*
        LDR       A1, $C$CON15          ; [DPU_V7M3_PIPE] |1497| 
        LDR       A1, [A1, #0]          ; [DPU_V7M3_PIPE] |1497| 
        B         ||$C$L43||            ; [DPU_V7M3_PIPE] |1497| 
        ; BRANCH OCCURS {||$C$L43||}     ; [] |1497| 
;* --------------------------------------------------------------------------*
||$C$L42||:    
        LDR       A1, [SP, #0]          ; [DPU_V7M3_PIPE] |1497| 
;* --------------------------------------------------------------------------*
||$C$L43||:    
        STR       A1, [SP, #4]          ; [DPU_V7M3_PIPE] |1497| 
	.dwpsn	file "C:/Tools/Thirdparty/FreeRTOSv202112.00/FreeRTOS/Source/tasks.c",line 1498,column 13,is_stmt,isa 1
        LDR       A1, [SP, #4]          ; [DPU_V7M3_PIPE] |1498| 
        LDR       A1, [A1, #44]         ; [DPU_V7M3_PIPE] |1498| 
        STR       A1, [SP, #8]          ; [DPU_V7M3_PIPE] |1498| 
	.dwpsn	file "C:/Tools/Thirdparty/FreeRTOSv202112.00/FreeRTOS/Source/tasks.c",line 1500,column 9,is_stmt,isa 1
$C$DW$166	.dwtag  DW_TAG_TI_branch
	.dwattr $C$DW$166, DW_AT_low_pc(0x00)
	.dwattr $C$DW$166, DW_AT_name("vPortExitCritical")
	.dwattr $C$DW$166, DW_AT_TI_call

        BL        vPortExitCritical     ; [DPU_V7M3_PIPE] |1500| 
        ; CALL OCCURS {vPortExitCritical }  ; [] |1500| 
	.dwpsn	file "C:/Tools/Thirdparty/FreeRTOSv202112.00/FreeRTOS/Source/tasks.c",line 1502,column 9,is_stmt,isa 1
        LDR       A1, [SP, #8]          ; [DPU_V7M3_PIPE] |1502| 
	.dwpsn	file "C:/Tools/Thirdparty/FreeRTOSv202112.00/FreeRTOS/Source/tasks.c",line 1503,column 5,is_stmt,isa 1
$C$DW$167	.dwtag  DW_TAG_TI_branch
	.dwattr $C$DW$167, DW_AT_low_pc(0x00)
	.dwattr $C$DW$167, DW_AT_TI_return

        POP       {A2, A3, A4, PC}      ; [DPU_V7M3_PIPE] 
	.dwcfi	cfa_offset, 0
	.dwcfi	restore_reg, 3
	.dwcfi	restore_reg, 2
	.dwcfi	restore_reg, 1
        ; BRANCH OCCURS                  ; [] 
	.dwattr $C$DW$160, DW_AT_TI_end_file("C:/Tools/Thirdparty/FreeRTOSv202112.00/FreeRTOS/Source/tasks.c")
	.dwattr $C$DW$160, DW_AT_TI_end_line(0x5df)
	.dwattr $C$DW$160, DW_AT_TI_end_column(0x05)
	.dwendentry
	.dwendtag $C$DW$160

;******************************************************************************
;* CONSTANT TABLE                                                             *
;******************************************************************************
	.sect	".text"
	.align	4
||$C$CON8||:	.bits		0xe000ed04,32

	.sect	".text"
	.clink
	.thumbfunc uxTaskPriorityGetFromISR
	.thumb
	.global	uxTaskPriorityGetFromISR

$C$DW$168	.dwtag  DW_TAG_subprogram
	.dwattr $C$DW$168, DW_AT_name("uxTaskPriorityGetFromISR")
	.dwattr $C$DW$168, DW_AT_low_pc(uxTaskPriorityGetFromISR)
	.dwattr $C$DW$168, DW_AT_high_pc(0x00)
	.dwattr $C$DW$168, DW_AT_TI_symbol_name("uxTaskPriorityGetFromISR")
	.dwattr $C$DW$168, DW_AT_external
	.dwattr $C$DW$168, DW_AT_type(*$C$DW$T$27)
	.dwattr $C$DW$168, DW_AT_TI_begin_file("C:/Tools/Thirdparty/FreeRTOSv202112.00/FreeRTOS/Source/tasks.c")
	.dwattr $C$DW$168, DW_AT_TI_begin_line(0x5e6)
	.dwattr $C$DW$168, DW_AT_TI_begin_column(0x11)
	.dwattr $C$DW$168, DW_AT_decl_file("C:/Tools/Thirdparty/FreeRTOSv202112.00/FreeRTOS/Source/tasks.c")
	.dwattr $C$DW$168, DW_AT_decl_line(0x5e6)
	.dwattr $C$DW$168, DW_AT_decl_column(0x11)
	.dwattr $C$DW$168, DW_AT_TI_max_frame_size(0x10)
	.dwpsn	file "C:/Tools/Thirdparty/FreeRTOSv202112.00/FreeRTOS/Source/tasks.c",line 1511,column 5,is_stmt,address uxTaskPriorityGetFromISR,isa 1

	.dwfde $C$DW$CIE, uxTaskPriorityGetFromISR
$C$DW$169	.dwtag  DW_TAG_formal_parameter
	.dwattr $C$DW$169, DW_AT_name("xTask")
	.dwattr $C$DW$169, DW_AT_TI_symbol_name("xTask")
	.dwattr $C$DW$169, DW_AT_type(*$C$DW$T$163)
	.dwattr $C$DW$169, DW_AT_location[DW_OP_reg0]


;*****************************************************************************
;* FUNCTION NAME: uxTaskPriorityGetFromISR                                   *
;*                                                                           *
;*   Regs Modified     : A1,A2,SP,SR                                         *
;*   Regs Used         : A1,A2,SP,LR,SR                                      *
;*   Local Frame Size  : 0 Args + 16 Auto + 0 Save = 16 byte                 *
;*****************************************************************************
uxTaskPriorityGetFromISR:
;* --------------------------------------------------------------------------*
	.dwcfi	cfa_offset, 0
        SUB       SP, SP, #16           ; [DPU_V7M3_PIPE] 
	.dwcfi	cfa_offset, 16
$C$DW$170	.dwtag  DW_TAG_variable
	.dwattr $C$DW$170, DW_AT_name("xTask")
	.dwattr $C$DW$170, DW_AT_TI_symbol_name("xTask")
	.dwattr $C$DW$170, DW_AT_type(*$C$DW$T$163)
	.dwattr $C$DW$170, DW_AT_location[DW_OP_breg13 0]

$C$DW$171	.dwtag  DW_TAG_variable
	.dwattr $C$DW$171, DW_AT_name("pxTCB")
	.dwattr $C$DW$171, DW_AT_TI_symbol_name("pxTCB")
	.dwattr $C$DW$171, DW_AT_type(*$C$DW$T$353)
	.dwattr $C$DW$171, DW_AT_location[DW_OP_breg13 4]

$C$DW$172	.dwtag  DW_TAG_variable
	.dwattr $C$DW$172, DW_AT_name("uxReturn")
	.dwattr $C$DW$172, DW_AT_TI_symbol_name("uxReturn")
	.dwattr $C$DW$172, DW_AT_type(*$C$DW$T$27)
	.dwattr $C$DW$172, DW_AT_location[DW_OP_breg13 8]

$C$DW$173	.dwtag  DW_TAG_variable
	.dwattr $C$DW$173, DW_AT_name("uxSavedInterruptState")
	.dwattr $C$DW$173, DW_AT_TI_symbol_name("uxSavedInterruptState")
	.dwattr $C$DW$173, DW_AT_type(*$C$DW$T$27)
	.dwattr $C$DW$173, DW_AT_location[DW_OP_breg13 12]

        STR       A1, [SP, #0]          ; [DPU_V7M3_PIPE] |1511| 
	.dwpsn	file "C:/Tools/Thirdparty/FreeRTOSv202112.00/FreeRTOS/Source/tasks.c",line 1533,column 9,is_stmt,isa 1
        MRS       A2, BASEPRI           ; [DPU_V7M3_PIPE] |1533| 
        MOVS      A1, #160              ; [DPU_V7M3_PIPE] |1533| 
        MSR       BASEPRI, A1           ; [DPU_V7M3_PIPE] |1533| 
        STR       A2, [SP, #12]         ; [DPU_V7M3_PIPE] |1533| 
	.dwpsn	file "C:/Tools/Thirdparty/FreeRTOSv202112.00/FreeRTOS/Source/tasks.c",line 1533,column 33,is_stmt,isa 1
	dsb
	isb
	.dwpsn	file "C:/Tools/Thirdparty/FreeRTOSv202112.00/FreeRTOS/Source/tasks.c",line 1537,column 13,is_stmt,isa 1
        LDR       A1, [SP, #0]          ; [DPU_V7M3_PIPE] |1537| 
        CBNZ      A1, ||$C$L44||        ; [] 
        ; BRANCHCC OCCURS {||$C$L44||}   ; [] |1537| 
;* --------------------------------------------------------------------------*
        LDR       A1, $C$CON15          ; [DPU_V7M3_PIPE] |1537| 
        LDR       A1, [A1, #0]          ; [DPU_V7M3_PIPE] |1537| 
        B         ||$C$L45||            ; [DPU_V7M3_PIPE] |1537| 
        ; BRANCH OCCURS {||$C$L45||}     ; [] |1537| 
;* --------------------------------------------------------------------------*
||$C$L44||:    
        LDR       A1, [SP, #0]          ; [DPU_V7M3_PIPE] |1537| 
;* --------------------------------------------------------------------------*
||$C$L45||:    
        STR       A1, [SP, #4]          ; [DPU_V7M3_PIPE] |1537| 
	.dwpsn	file "C:/Tools/Thirdparty/FreeRTOSv202112.00/FreeRTOS/Source/tasks.c",line 1538,column 13,is_stmt,isa 1
        LDR       A1, [SP, #4]          ; [DPU_V7M3_PIPE] |1538| 
        LDR       A1, [A1, #44]         ; [DPU_V7M3_PIPE] |1538| 
        STR       A1, [SP, #8]          ; [DPU_V7M3_PIPE] |1538| 
	.dwpsn	file "C:/Tools/Thirdparty/FreeRTOSv202112.00/FreeRTOS/Source/tasks.c",line 1540,column 9,is_stmt,isa 1
        LDR       A1, [SP, #12]         ; [DPU_V7M3_PIPE] |1540| 
        MSR       BASEPRI, A1           ; [DPU_V7M3_PIPE] |1540| 
	.dwpsn	file "C:/Tools/Thirdparty/FreeRTOSv202112.00/FreeRTOS/Source/tasks.c",line 1542,column 9,is_stmt,isa 1
        LDR       A1, [SP, #8]          ; [DPU_V7M3_PIPE] |1542| 
	.dwpsn	file "C:/Tools/Thirdparty/FreeRTOSv202112.00/FreeRTOS/Source/tasks.c",line 1543,column 5,is_stmt,isa 1
        ADD       SP, SP, #16           ; [DPU_V7M3_PIPE] 
	.dwcfi	cfa_offset, 0
$C$DW$174	.dwtag  DW_TAG_TI_branch
	.dwattr $C$DW$174, DW_AT_low_pc(0x00)
	.dwattr $C$DW$174, DW_AT_TI_return

        BX        LR                    ; [DPU_V7M3_PIPE] 
        ; BRANCH OCCURS                  ; [] 
	.dwattr $C$DW$168, DW_AT_TI_end_file("C:/Tools/Thirdparty/FreeRTOSv202112.00/FreeRTOS/Source/tasks.c")
	.dwattr $C$DW$168, DW_AT_TI_end_line(0x607)
	.dwattr $C$DW$168, DW_AT_TI_end_column(0x05)
	.dwendentry
	.dwendtag $C$DW$168

;******************************************************************************
;* CONSTANT TABLE                                                             *
;******************************************************************************
	.sect	".text"
	.align	4
||$C$CON9||:	.bits	xTasksWaitingTermination,32
	.align	4
||$C$CON10||:	.bits	uxDeletedTasksWaitingCleanUp,32
	.align	4
||$C$CON11||:	.bits	xTickCount,32
	.sect	".text"
	.clink
	.thumbfunc vTaskPrioritySet
	.thumb
	.global	vTaskPrioritySet

$C$DW$175	.dwtag  DW_TAG_subprogram
	.dwattr $C$DW$175, DW_AT_name("vTaskPrioritySet")
	.dwattr $C$DW$175, DW_AT_low_pc(vTaskPrioritySet)
	.dwattr $C$DW$175, DW_AT_high_pc(0x00)
	.dwattr $C$DW$175, DW_AT_TI_symbol_name("vTaskPrioritySet")
	.dwattr $C$DW$175, DW_AT_external
	.dwattr $C$DW$175, DW_AT_TI_begin_file("C:/Tools/Thirdparty/FreeRTOSv202112.00/FreeRTOS/Source/tasks.c")
	.dwattr $C$DW$175, DW_AT_TI_begin_line(0x60e)
	.dwattr $C$DW$175, DW_AT_TI_begin_column(0x0a)
	.dwattr $C$DW$175, DW_AT_decl_file("C:/Tools/Thirdparty/FreeRTOSv202112.00/FreeRTOS/Source/tasks.c")
	.dwattr $C$DW$175, DW_AT_decl_line(0x60e)
	.dwattr $C$DW$175, DW_AT_decl_column(0x0a)
	.dwattr $C$DW$175, DW_AT_TI_max_frame_size(0x20)
	.dwpsn	file "C:/Tools/Thirdparty/FreeRTOSv202112.00/FreeRTOS/Source/tasks.c",line 1552,column 5,is_stmt,address vTaskPrioritySet,isa 1

	.dwfde $C$DW$CIE, vTaskPrioritySet
$C$DW$176	.dwtag  DW_TAG_formal_parameter
	.dwattr $C$DW$176, DW_AT_name("xTask")
	.dwattr $C$DW$176, DW_AT_TI_symbol_name("xTask")
	.dwattr $C$DW$176, DW_AT_type(*$C$DW$T$94)
	.dwattr $C$DW$176, DW_AT_location[DW_OP_reg0]

$C$DW$177	.dwtag  DW_TAG_formal_parameter
	.dwattr $C$DW$177, DW_AT_name("uxNewPriority")
	.dwattr $C$DW$177, DW_AT_TI_symbol_name("uxNewPriority")
	.dwattr $C$DW$177, DW_AT_type(*$C$DW$T$27)
	.dwattr $C$DW$177, DW_AT_location[DW_OP_reg1]


;*****************************************************************************
;* FUNCTION NAME: vTaskPrioritySet                                           *
;*                                                                           *
;*   Regs Modified     : A1,A2,A3,A4,V9,SP,LR,SR,D0,D0_hi,D1,D1_hi,D2,D2_hi, *
;*                           D3,D3_hi,D4,D4_hi,D5,D5_hi,D6,D6_hi,D7,D7_hi,   *
;*                           FPEXC,FPSCR                                     *
;*   Regs Used         : A1,A2,A3,A4,V9,SP,LR,SR,D0,D0_hi,D1,D1_hi,D2,D2_hi, *
;*                           D3,D3_hi,D4,D4_hi,D5,D5_hi,D6,D6_hi,D7,D7_hi,   *
;*                           FPEXC,FPSCR                                     *
;*   Local Frame Size  : 0 Args + 28 Auto + 4 Save = 32 byte                 *
;*****************************************************************************
vTaskPrioritySet:
;* --------------------------------------------------------------------------*
	.dwcfi	cfa_offset, 0
        PUSH      {LR}                  ; [DPU_V7M3_PIPE] 
	.dwcfi	cfa_offset, 4
	.dwcfi	save_reg_to_mem, 14, -4
        SUB       SP, SP, #28           ; [DPU_V7M3_PIPE] 
	.dwcfi	cfa_offset, 32
$C$DW$178	.dwtag  DW_TAG_variable
	.dwattr $C$DW$178, DW_AT_name("xTask")
	.dwattr $C$DW$178, DW_AT_TI_symbol_name("xTask")
	.dwattr $C$DW$178, DW_AT_type(*$C$DW$T$94)
	.dwattr $C$DW$178, DW_AT_location[DW_OP_breg13 0]

$C$DW$179	.dwtag  DW_TAG_variable
	.dwattr $C$DW$179, DW_AT_name("uxNewPriority")
	.dwattr $C$DW$179, DW_AT_TI_symbol_name("uxNewPriority")
	.dwattr $C$DW$179, DW_AT_type(*$C$DW$T$27)
	.dwattr $C$DW$179, DW_AT_location[DW_OP_breg13 4]

$C$DW$180	.dwtag  DW_TAG_variable
	.dwattr $C$DW$180, DW_AT_name("pxTCB")
	.dwattr $C$DW$180, DW_AT_TI_symbol_name("pxTCB")
	.dwattr $C$DW$180, DW_AT_type(*$C$DW$T$135)
	.dwattr $C$DW$180, DW_AT_location[DW_OP_breg13 8]

$C$DW$181	.dwtag  DW_TAG_variable
	.dwattr $C$DW$181, DW_AT_name("uxCurrentBasePriority")
	.dwattr $C$DW$181, DW_AT_TI_symbol_name("uxCurrentBasePriority")
	.dwattr $C$DW$181, DW_AT_type(*$C$DW$T$27)
	.dwattr $C$DW$181, DW_AT_location[DW_OP_breg13 12]

$C$DW$182	.dwtag  DW_TAG_variable
	.dwattr $C$DW$182, DW_AT_name("uxPriorityUsedOnEntry")
	.dwattr $C$DW$182, DW_AT_TI_symbol_name("uxPriorityUsedOnEntry")
	.dwattr $C$DW$182, DW_AT_type(*$C$DW$T$27)
	.dwattr $C$DW$182, DW_AT_location[DW_OP_breg13 16]

$C$DW$183	.dwtag  DW_TAG_variable
	.dwattr $C$DW$183, DW_AT_name("xYieldRequired")
	.dwattr $C$DW$183, DW_AT_TI_symbol_name("xYieldRequired")
	.dwattr $C$DW$183, DW_AT_type(*$C$DW$T$98)
	.dwattr $C$DW$183, DW_AT_location[DW_OP_breg13 20]

        STR       A2, [SP, #4]          ; [DPU_V7M3_PIPE] |1552| 
        STR       A1, [SP, #0]          ; [DPU_V7M3_PIPE] |1552| 
	.dwpsn	file "C:/Tools/Thirdparty/FreeRTOSv202112.00/FreeRTOS/Source/tasks.c",line 1555,column 35,is_stmt,isa 1
        MOVS      A1, #0                ; [DPU_V7M3_PIPE] |1555| 
        STR       A1, [SP, #20]         ; [DPU_V7M3_PIPE] |1555| 
	.dwpsn	file "C:/Tools/Thirdparty/FreeRTOSv202112.00/FreeRTOS/Source/tasks.c",line 1560,column 9,is_stmt,isa 1
        LDR       A1, [SP, #4]          ; [DPU_V7M3_PIPE] |1560| 
        CMP       A1, #5                ; [DPU_V7M3_PIPE] |1560| 
        BCC       ||$C$L46||            ; [DPU_V7M3_PIPE] |1560| 
        ; BRANCHCC OCCURS {||$C$L46||}   ; [] |1560| 
;* --------------------------------------------------------------------------*
	.dwpsn	file "C:/Tools/Thirdparty/FreeRTOSv202112.00/FreeRTOS/Source/tasks.c",line 1562,column 13,is_stmt,isa 1
        MOVS      A1, #4                ; [DPU_V7M3_PIPE] |1562| 
        STR       A1, [SP, #4]          ; [DPU_V7M3_PIPE] |1562| 
;* --------------------------------------------------------------------------*
||$C$L46||:    
	.dwpsn	file "C:/Tools/Thirdparty/FreeRTOSv202112.00/FreeRTOS/Source/tasks.c",line 1569,column 9,is_stmt,isa 1
$C$DW$184	.dwtag  DW_TAG_TI_branch
	.dwattr $C$DW$184, DW_AT_low_pc(0x00)
	.dwattr $C$DW$184, DW_AT_name("vPortEnterCritical")
	.dwattr $C$DW$184, DW_AT_TI_call

        BL        vPortEnterCritical    ; [DPU_V7M3_PIPE] |1569| 
        ; CALL OCCURS {vPortEnterCritical }  ; [] |1569| 

$C$DW$185	.dwtag  DW_TAG_lexical_block
	.dwattr $C$DW$185, DW_AT_low_pc(0x00)
	.dwattr $C$DW$185, DW_AT_high_pc(0x00)
	.dwpsn	file "C:/Tools/Thirdparty/FreeRTOSv202112.00/FreeRTOS/Source/tasks.c",line 1573,column 13,is_stmt,isa 1
        LDR       A1, [SP, #0]          ; [DPU_V7M3_PIPE] |1573| 
        CBNZ      A1, ||$C$L47||        ; [] 
        ; BRANCHCC OCCURS {||$C$L47||}   ; [] |1573| 
;* --------------------------------------------------------------------------*
        LDR       A1, $C$CON15          ; [DPU_V7M3_PIPE] |1573| 
        LDR       A1, [A1, #0]          ; [DPU_V7M3_PIPE] |1573| 
        B         ||$C$L48||            ; [DPU_V7M3_PIPE] |1573| 
        ; BRANCH OCCURS {||$C$L48||}     ; [] |1573| 
;* --------------------------------------------------------------------------*
||$C$L47||:    
        LDR       A1, [SP, #0]          ; [DPU_V7M3_PIPE] |1573| 
;* --------------------------------------------------------------------------*
||$C$L48||:    
        STR       A1, [SP, #8]          ; [DPU_V7M3_PIPE] |1573| 
	.dwpsn	file "C:/Tools/Thirdparty/FreeRTOSv202112.00/FreeRTOS/Source/tasks.c",line 1579,column 21,is_stmt,isa 1
        LDR       A1, [SP, #8]          ; [DPU_V7M3_PIPE] |1579| 
        LDR       A1, [A1, #84]         ; [DPU_V7M3_PIPE] |1579| 
        STR       A1, [SP, #12]         ; [DPU_V7M3_PIPE] |1579| 

$C$DW$186	.dwtag  DW_TAG_lexical_block
	.dwattr $C$DW$186, DW_AT_low_pc(0x00)
	.dwattr $C$DW$186, DW_AT_high_pc(0x00)
	.dwpsn	file "C:/Tools/Thirdparty/FreeRTOSv202112.00/FreeRTOS/Source/tasks.c",line 1587,column 13,is_stmt,isa 1
        LDR       A2, [SP, #12]         ; [DPU_V7M3_PIPE] |1587| 
        LDR       A1, [SP, #4]          ; [DPU_V7M3_PIPE] |1587| 
        CMP       A1, A2                ; [DPU_V7M3_PIPE] |1587| 
        BEQ       ||$C$L58||            ; [DPU_V7M3_PIPE] |1587| 
        ; BRANCHCC OCCURS {||$C$L58||}   ; [] |1587| 
;* --------------------------------------------------------------------------*

$C$DW$187	.dwtag  DW_TAG_lexical_block
	.dwattr $C$DW$187, DW_AT_low_pc(0x00)
	.dwattr $C$DW$187, DW_AT_high_pc(0x00)
	.dwpsn	file "C:/Tools/Thirdparty/FreeRTOSv202112.00/FreeRTOS/Source/tasks.c",line 1591,column 17,is_stmt,isa 1
        LDR       A1, [SP, #12]         ; [DPU_V7M3_PIPE] |1591| 
        LDR       A2, [SP, #4]          ; [DPU_V7M3_PIPE] |1591| 
        CMP       A1, A2                ; [DPU_V7M3_PIPE] |1591| 
        BCS       ||$C$L49||            ; [DPU_V7M3_PIPE] |1591| 
        ; BRANCHCC OCCURS {||$C$L49||}   ; [] |1591| 
;* --------------------------------------------------------------------------*
	.dwpsn	file "C:/Tools/Thirdparty/FreeRTOSv202112.00/FreeRTOS/Source/tasks.c",line 1593,column 21,is_stmt,isa 1
        LDR       A1, $C$CON15          ; [DPU_V7M3_PIPE] |1593| 
        LDR       A2, [SP, #8]          ; [DPU_V7M3_PIPE] |1593| 
        LDR       A1, [A1, #0]          ; [DPU_V7M3_PIPE] |1593| 
        CMP       A1, A2                ; [DPU_V7M3_PIPE] |1593| 
        BEQ       ||$C$L50||            ; [DPU_V7M3_PIPE] |1593| 
        ; BRANCHCC OCCURS {||$C$L50||}   ; [] |1593| 
;* --------------------------------------------------------------------------*
	.dwpsn	file "C:/Tools/Thirdparty/FreeRTOSv202112.00/FreeRTOS/Source/tasks.c",line 1598,column 25,is_stmt,isa 1
        LDR       A1, $C$CON15          ; [DPU_V7M3_PIPE] |1598| 
        LDR       A1, [A1, #0]          ; [DPU_V7M3_PIPE] |1598| 
        LDR       A2, [SP, #4]          ; [DPU_V7M3_PIPE] |1598| 
        LDR       A1, [A1, #44]         ; [DPU_V7M3_PIPE] |1598| 
        CMP       A1, A2                ; [DPU_V7M3_PIPE] |1598| 
        BHI       ||$C$L50||            ; [DPU_V7M3_PIPE] |1598| 
        ; BRANCHCC OCCURS {||$C$L50||}   ; [] |1598| 
;* --------------------------------------------------------------------------*
	.dwpsn	file "C:/Tools/Thirdparty/FreeRTOSv202112.00/FreeRTOS/Source/tasks.c",line 1600,column 29,is_stmt,isa 1
        MOVS      A1, #1                ; [DPU_V7M3_PIPE] |1600| 
        STR       A1, [SP, #20]         ; [DPU_V7M3_PIPE] |1600| 
        B         ||$C$L50||            ; [DPU_V7M3_PIPE] 
        ; BRANCH OCCURS {||$C$L50||}     ; [] 
;* --------------------------------------------------------------------------*
||$C$L49||:    
	.dwpsn	file "C:/Tools/Thirdparty/FreeRTOSv202112.00/FreeRTOS/Source/tasks.c",line 1614,column 22,is_stmt,isa 1
        LDR       A1, $C$CON15          ; [DPU_V7M3_PIPE] |1614| 
        LDR       A2, [SP, #8]          ; [DPU_V7M3_PIPE] |1614| 
        LDR       A1, [A1, #0]          ; [DPU_V7M3_PIPE] |1614| 
        CMP       A1, A2                ; [DPU_V7M3_PIPE] |1614| 
        BNE       ||$C$L50||            ; [DPU_V7M3_PIPE] |1614| 
        ; BRANCHCC OCCURS {||$C$L50||}   ; [] |1614| 
;* --------------------------------------------------------------------------*
	.dwpsn	file "C:/Tools/Thirdparty/FreeRTOSv202112.00/FreeRTOS/Source/tasks.c",line 1619,column 21,is_stmt,isa 1
        MOVS      A1, #1                ; [DPU_V7M3_PIPE] |1619| 
        STR       A1, [SP, #20]         ; [DPU_V7M3_PIPE] |1619| 
;* --------------------------------------------------------------------------*
||$C$L50||:    
	.dwpsn	file "C:/Tools/Thirdparty/FreeRTOSv202112.00/FreeRTOS/Source/tasks.c",line 1631,column 17,is_stmt,isa 1
        LDR       A1, [SP, #8]          ; [DPU_V7M3_PIPE] |1631| 
        LDR       A1, [A1, #44]         ; [DPU_V7M3_PIPE] |1631| 
        STR       A1, [SP, #16]         ; [DPU_V7M3_PIPE] |1631| 
	.dwpsn	file "C:/Tools/Thirdparty/FreeRTOSv202112.00/FreeRTOS/Source/tasks.c",line 1637,column 25,is_stmt,isa 1
        LDR       A2, [SP, #8]          ; [DPU_V7M3_PIPE] |1637| 
        LDR       A1, [SP, #8]          ; [DPU_V7M3_PIPE] |1637| 
        LDR       A2, [A2, #84]         ; [DPU_V7M3_PIPE] |1637| 
        LDR       A1, [A1, #44]         ; [DPU_V7M3_PIPE] |1637| 
        CMP       A1, A2                ; [DPU_V7M3_PIPE] |1637| 
        BNE       ||$C$L51||            ; [DPU_V7M3_PIPE] |1637| 
        ; BRANCHCC OCCURS {||$C$L51||}   ; [] |1637| 
;* --------------------------------------------------------------------------*
	.dwpsn	file "C:/Tools/Thirdparty/FreeRTOSv202112.00/FreeRTOS/Source/tasks.c",line 1639,column 29,is_stmt,isa 1
        LDR       A1, [SP, #4]          ; [DPU_V7M3_PIPE] |1639| 
        LDR       A2, [SP, #8]          ; [DPU_V7M3_PIPE] |1639| 
        STR       A1, [A2, #44]         ; [DPU_V7M3_PIPE] |1639| 
;* --------------------------------------------------------------------------*
||$C$L51||:    
	.dwpsn	file "C:/Tools/Thirdparty/FreeRTOSv202112.00/FreeRTOS/Source/tasks.c",line 1647,column 25,is_stmt,isa 1
        LDR       A1, [SP, #4]          ; [DPU_V7M3_PIPE] |1647| 
        LDR       A2, [SP, #8]          ; [DPU_V7M3_PIPE] |1647| 
        STR       A1, [A2, #84]         ; [DPU_V7M3_PIPE] |1647| 
	.dwpsn	file "C:/Tools/Thirdparty/FreeRTOSv202112.00/FreeRTOS/Source/tasks.c",line 1657,column 17,is_stmt,isa 1
        LDR       A1, [SP, #8]          ; [DPU_V7M3_PIPE] |1657| 
        LDR       A1, [A1, #24]         ; [DPU_V7M3_PIPE] |1657| 
        LSRS      A1, A1, #32           ; [DPU_V7M3_PIPE] |1657| 
        BCS       ||$C$L52||            ; [DPU_V7M3_PIPE] |1657| 
        ; BRANCHCC OCCURS {||$C$L52||}   ; [] |1657| 
;* --------------------------------------------------------------------------*
	.dwpsn	file "C:/Tools/Thirdparty/FreeRTOSv202112.00/FreeRTOS/Source/tasks.c",line 1659,column 21,is_stmt,isa 1
        LDR       A1, [SP, #4]          ; [DPU_V7M3_PIPE] |1659| 
        LDR       A2, [SP, #8]          ; [DPU_V7M3_PIPE] |1659| 
        RSB       A1, A1, #5            ; [DPU_V7M3_PIPE] |1659| 
        STR       A1, [A2, #24]         ; [DPU_V7M3_PIPE] |1659| 
;* --------------------------------------------------------------------------*
||$C$L52||:    

$C$DW$188	.dwtag  DW_TAG_lexical_block
	.dwattr $C$DW$188, DW_AT_low_pc(0x00)
	.dwattr $C$DW$188, DW_AT_high_pc(0x00)
	.dwpsn	file "C:/Tools/Thirdparty/FreeRTOSv202112.00/FreeRTOS/Source/tasks.c",line 1670,column 17,is_stmt,isa 1
        LDR       A1, [SP, #8]          ; [DPU_V7M3_PIPE] |1670| 
        LDR       A4, [SP, #16]         ; [DPU_V7M3_PIPE] |1670| 
        LDR       A3, $C$CON16          ; [DPU_V7M3_PIPE] |1670| 
        LDR       A2, [A1, #20]         ; [DPU_V7M3_PIPE] |1670| 
        LSLS      A1, A4, #2            ; [DPU_V7M3_PIPE] |1670| 
        ADD       A1, A1, A4, LSL #4    ; [DPU_V7M3_PIPE] |1670| 
        ADDS      A1, A1, A3            ; [DPU_V7M3_PIPE] |1670| 
        CMP       A1, A2                ; [DPU_V7M3_PIPE] |1670| 
        BNE       ||$C$L53||            ; [DPU_V7M3_PIPE] |1670| 
        ; BRANCHCC OCCURS {||$C$L53||}   ; [] |1670| 
;* --------------------------------------------------------------------------*
        MOVS      A1, #1                ; [DPU_V7M3_PIPE] |1670| 
        B         ||$C$L54||            ; [DPU_V7M3_PIPE] |1670| 
        ; BRANCH OCCURS {||$C$L54||}     ; [] |1670| 
;* --------------------------------------------------------------------------*
||$C$L53||:    
        MOVS      A1, #0                ; [DPU_V7M3_PIPE] |1670| 
;* --------------------------------------------------------------------------*
||$C$L54||:    
        CMP       A1, #0                ; [DPU_V7M3_PIPE] |1670| 
        BEQ       ||$C$L56||            ; [DPU_V7M3_PIPE] |1670| 
        ; BRANCHCC OCCURS {||$C$L56||}   ; [] |1670| 
;* --------------------------------------------------------------------------*

$C$DW$189	.dwtag  DW_TAG_lexical_block
	.dwattr $C$DW$189, DW_AT_low_pc(0x00)
	.dwattr $C$DW$189, DW_AT_high_pc(0x00)
	.dwpsn	file "C:/Tools/Thirdparty/FreeRTOSv202112.00/FreeRTOS/Source/tasks.c",line 1675,column 21,is_stmt,isa 1
        LDR       A1, [SP, #8]          ; [DPU_V7M3_PIPE] |1675| 
        ADDS      A1, A1, #4            ; [DPU_V7M3_PIPE] |1675| 
$C$DW$190	.dwtag  DW_TAG_TI_branch
	.dwattr $C$DW$190, DW_AT_low_pc(0x00)
	.dwattr $C$DW$190, DW_AT_name("uxListRemove")
	.dwattr $C$DW$190, DW_AT_TI_call

        BL        uxListRemove          ; [DPU_V7M3_PIPE] |1675| 
        ; CALL OCCURS {uxListRemove }    ; [] |1675| 
        CBNZ      A1, ||$C$L55||        ; [] 
        ; BRANCHCC OCCURS {||$C$L55||}   ; [] |1675| 
;* --------------------------------------------------------------------------*
	.dwpsn	file "C:/Tools/Thirdparty/FreeRTOSv202112.00/FreeRTOS/Source/tasks.c",line 1680,column 25,is_stmt,isa 1
        LDR       A3, $C$CON17          ; [DPU_V7M3_PIPE] |1680| 
        LDR       A4, [SP, #16]         ; [DPU_V7M3_PIPE] |1680| 
        LDR       A2, [A3, #0]          ; [DPU_V7M3_PIPE] |1680| 
        MOVS      A1, #1                ; [DPU_V7M3_PIPE] |1680| 
        LSLS      A1, A1, A4            ; [DPU_V7M3_PIPE] |1680| 
        BICS      A2, A2, A1            ; [DPU_V7M3_PIPE] |1680| 
        STR       A2, [A3, #0]          ; [DPU_V7M3_PIPE] |1680| 
;* --------------------------------------------------------------------------*
||$C$L55||:    
	.dwpsn	file "C:/Tools/Thirdparty/FreeRTOSv202112.00/FreeRTOS/Source/tasks.c",line 1687,column 21,is_stmt,isa 1
        LDR       A1, [SP, #8]          ; [DPU_V7M3_PIPE] |1687| 
        LDR       A2, $C$CON17          ; [DPU_V7M3_PIPE] |1687| 
        LDR       A4, [A1, #44]         ; [DPU_V7M3_PIPE] |1687| 
        LDR       A3, [A2, #0]          ; [DPU_V7M3_PIPE] |1687| 
        MOVS      A1, #1                ; [DPU_V7M3_PIPE] |1687| 
        LSLS      A1, A1, A4            ; [DPU_V7M3_PIPE] |1687| 
        ORRS      A1, A1, A3            ; [DPU_V7M3_PIPE] |1687| 
        STR       A1, [A2, #0]          ; [DPU_V7M3_PIPE] |1687| 

$C$DW$191	.dwtag  DW_TAG_lexical_block
	.dwattr $C$DW$191, DW_AT_low_pc(0x00)
	.dwattr $C$DW$191, DW_AT_high_pc(0x00)
$C$DW$192	.dwtag  DW_TAG_variable
	.dwattr $C$DW$192, DW_AT_name("pxIndex")
	.dwattr $C$DW$192, DW_AT_TI_symbol_name("pxIndex")
	.dwattr $C$DW$192, DW_AT_type(*$C$DW$T$124)
	.dwattr $C$DW$192, DW_AT_location[DW_OP_breg13 24]

        LDR       A1, [SP, #8]          ; [DPU_V7M3_PIPE] |1687| 
        LDR       A2, $C$CON18          ; [DPU_V7M3_PIPE] |1687| 
        LDR       A3, [A1, #44]         ; [DPU_V7M3_PIPE] |1687| 
        LSLS      A1, A3, #2            ; [DPU_V7M3_PIPE] |1687| 
        ADD       A1, A1, A3, LSL #4    ; [DPU_V7M3_PIPE] |1687| 
        LDR       A1, [A2, +A1]         ; [DPU_V7M3_PIPE] |1687| 
        LDR       A2, [SP, #8]          ; [DPU_V7M3_PIPE] |1687| 
        STR       A1, [SP, #24]         ; [DPU_V7M3_PIPE] |1687| 
        LDR       A1, [SP, #24]         ; [DPU_V7M3_PIPE] |1687| 
        STR       A1, [A2, #8]          ; [DPU_V7M3_PIPE] |1687| 
        LDR       A1, [SP, #24]         ; [DPU_V7M3_PIPE] |1687| 
        LDR       A2, [SP, #8]          ; [DPU_V7M3_PIPE] |1687| 
        LDR       A1, [A1, #8]          ; [DPU_V7M3_PIPE] |1687| 
        STR       A1, [A2, #12]         ; [DPU_V7M3_PIPE] |1687| 
        LDR       A1, [SP, #8]          ; [DPU_V7M3_PIPE] |1687| 
        LDR       A2, [SP, #24]         ; [DPU_V7M3_PIPE] |1687| 
        ADDS      A1, A1, #4            ; [DPU_V7M3_PIPE] |1687| 
        LDR       A2, [A2, #8]          ; [DPU_V7M3_PIPE] |1687| 
        LDR       A3, $C$CON16          ; [DPU_V7M3_PIPE] |1687| 
        STR       A1, [A2, #4]          ; [DPU_V7M3_PIPE] |1687| 
        LDR       A1, [SP, #8]          ; [DPU_V7M3_PIPE] |1687| 
        LDR       A2, [SP, #24]         ; [DPU_V7M3_PIPE] |1687| 
        ADDS      A1, A1, #4            ; [DPU_V7M3_PIPE] |1687| 
        STR       A1, [A2, #8]          ; [DPU_V7M3_PIPE] |1687| 
        LDR       A1, [SP, #8]          ; [DPU_V7M3_PIPE] |1687| 
        LDR       A2, [SP, #8]          ; [DPU_V7M3_PIPE] |1687| 
        LDR       A4, [A1, #44]         ; [DPU_V7M3_PIPE] |1687| 
        LSLS      A1, A4, #2            ; [DPU_V7M3_PIPE] |1687| 
        ADD       A1, A1, A4, LSL #4    ; [DPU_V7M3_PIPE] |1687| 
        ADDS      A1, A1, A3            ; [DPU_V7M3_PIPE] |1687| 
        STR       A1, [A2, #20]         ; [DPU_V7M3_PIPE] |1687| 
        LDR       A1, [SP, #8]          ; [DPU_V7M3_PIPE] |1687| 
        LDR       A3, $C$CON16          ; [DPU_V7M3_PIPE] |1687| 
        LDR       A2, [A1, #44]         ; [DPU_V7M3_PIPE] |1687| 
        LSLS      A1, A2, #2            ; [DPU_V7M3_PIPE] |1687| 
        ADD       A1, A1, A2, LSL #4    ; [DPU_V7M3_PIPE] |1687| 
        LDR       A2, [A1, +A3]         ; [DPU_V7M3_PIPE] |1687| 
        ADDS      A2, A2, #1            ; [DPU_V7M3_PIPE] |1687| 
        STR       A2, [A1, +A3]         ; [DPU_V7M3_PIPE] |1687| 
	.dwendtag $C$DW$191

	.dwendtag $C$DW$189

;* --------------------------------------------------------------------------*
||$C$L56||:    
	.dwendtag $C$DW$188

	.dwpsn	file "C:/Tools/Thirdparty/FreeRTOSv202112.00/FreeRTOS/Source/tasks.c",line 1694,column 17,is_stmt,isa 1
        LDR       A1, [SP, #20]         ; [DPU_V7M3_PIPE] |1694| 
        CBZ       A1, ||$C$L57||        ; [] 
        ; BRANCHCC OCCURS {||$C$L57||}   ; [] |1694| 
;* --------------------------------------------------------------------------*
	.dwpsn	file "C:/Tools/Thirdparty/FreeRTOSv202112.00/FreeRTOS/Source/tasks.c",line 1696,column 21,is_stmt,isa 1
        LDR       A2, $C$CON19          ; [DPU_V7M3_PIPE] |1696| 
        MOV       A1, #268435456        ; [DPU_V7M3_PIPE] |1696| 
        STR       A1, [A2, #0]          ; [DPU_V7M3_PIPE] |1696| 
	dsb
	isb
;* --------------------------------------------------------------------------*
||$C$L57||:    
	.dwpsn	file "C:/Tools/Thirdparty/FreeRTOSv202112.00/FreeRTOS/Source/tasks.c",line 1705,column 17,is_stmt,isa 1
	.dwendtag $C$DW$187

;* --------------------------------------------------------------------------*
||$C$L58||:    
	.dwendtag $C$DW$186

	.dwendtag $C$DW$185

	.dwpsn	file "C:/Tools/Thirdparty/FreeRTOSv202112.00/FreeRTOS/Source/tasks.c",line 1708,column 9,is_stmt,isa 1
$C$DW$193	.dwtag  DW_TAG_TI_branch
	.dwattr $C$DW$193, DW_AT_low_pc(0x00)
	.dwattr $C$DW$193, DW_AT_name("vPortExitCritical")
	.dwattr $C$DW$193, DW_AT_TI_call

        BL        vPortExitCritical     ; [DPU_V7M3_PIPE] |1708| 
        ; CALL OCCURS {vPortExitCritical }  ; [] |1708| 
	.dwpsn	file "C:/Tools/Thirdparty/FreeRTOSv202112.00/FreeRTOS/Source/tasks.c",line 1709,column 5,is_stmt,isa 1
        ADD       SP, SP, #28           ; [DPU_V7M3_PIPE] 
	.dwcfi	cfa_offset, 4
$C$DW$194	.dwtag  DW_TAG_TI_branch
	.dwattr $C$DW$194, DW_AT_low_pc(0x00)
	.dwattr $C$DW$194, DW_AT_TI_return

        POP       {PC}                  ; [DPU_V7M3_PIPE] 
	.dwcfi	cfa_offset, 0
        ; BRANCH OCCURS                  ; [] 
	.dwattr $C$DW$175, DW_AT_TI_end_file("C:/Tools/Thirdparty/FreeRTOSv202112.00/FreeRTOS/Source/tasks.c")
	.dwattr $C$DW$175, DW_AT_TI_end_line(0x6ad)
	.dwattr $C$DW$175, DW_AT_TI_end_column(0x05)
	.dwendentry
	.dwendtag $C$DW$175

;******************************************************************************
;* CONSTANT TABLE                                                             *
;******************************************************************************
	.sect	".text"
	.align	4
||$C$CON12||:	.bits	pxDelayedTaskList,32
	.align	4
||$C$CON13||:	.bits	pxOverflowDelayedTaskList,32
	.sect	".text"
	.clink
	.thumbfunc vTaskSuspend
	.thumb
	.global	vTaskSuspend

$C$DW$195	.dwtag  DW_TAG_subprogram
	.dwattr $C$DW$195, DW_AT_name("vTaskSuspend")
	.dwattr $C$DW$195, DW_AT_low_pc(vTaskSuspend)
	.dwattr $C$DW$195, DW_AT_high_pc(0x00)
	.dwattr $C$DW$195, DW_AT_TI_symbol_name("vTaskSuspend")
	.dwattr $C$DW$195, DW_AT_external
	.dwattr $C$DW$195, DW_AT_TI_begin_file("C:/Tools/Thirdparty/FreeRTOSv202112.00/FreeRTOS/Source/tasks.c")
	.dwattr $C$DW$195, DW_AT_TI_begin_line(0x6b4)
	.dwattr $C$DW$195, DW_AT_TI_begin_column(0x0a)
	.dwattr $C$DW$195, DW_AT_decl_file("C:/Tools/Thirdparty/FreeRTOSv202112.00/FreeRTOS/Source/tasks.c")
	.dwattr $C$DW$195, DW_AT_decl_line(0x6b4)
	.dwattr $C$DW$195, DW_AT_decl_column(0x0a)
	.dwattr $C$DW$195, DW_AT_TI_max_frame_size(0x10)
	.dwpsn	file "C:/Tools/Thirdparty/FreeRTOSv202112.00/FreeRTOS/Source/tasks.c",line 1717,column 5,is_stmt,address vTaskSuspend,isa 1

	.dwfde $C$DW$CIE, vTaskSuspend
$C$DW$196	.dwtag  DW_TAG_formal_parameter
	.dwattr $C$DW$196, DW_AT_name("xTaskToSuspend")
	.dwattr $C$DW$196, DW_AT_TI_symbol_name("xTaskToSuspend")
	.dwattr $C$DW$196, DW_AT_type(*$C$DW$T$94)
	.dwattr $C$DW$196, DW_AT_location[DW_OP_reg0]


;*****************************************************************************
;* FUNCTION NAME: vTaskSuspend                                               *
;*                                                                           *
;*   Regs Modified     : A1,A2,A3,A4,V9,SP,LR,SR,D0,D0_hi,D1,D1_hi,D2,D2_hi, *
;*                           D3,D3_hi,D4,D4_hi,D5,D5_hi,D6,D6_hi,D7,D7_hi,   *
;*                           FPEXC,FPSCR                                     *
;*   Regs Used         : A1,A2,A3,A4,V9,SP,LR,SR,D0,D0_hi,D1,D1_hi,D2,D2_hi, *
;*                           D3,D3_hi,D4,D4_hi,D5,D5_hi,D6,D6_hi,D7,D7_hi,   *
;*                           FPEXC,FPSCR                                     *
;*   Local Frame Size  : 0 Args + 12 Auto + 4 Save = 16 byte                 *
;*****************************************************************************
vTaskSuspend:
;* --------------------------------------------------------------------------*
	.dwcfi	cfa_offset, 0
        PUSH      {A2, A3, A4, LR}      ; [DPU_V7M3_PIPE] 
	.dwcfi	cfa_offset, 16
	.dwcfi	save_reg_to_mem, 14, -4
	.dwcfi	save_reg_to_mem, 3, -8
	.dwcfi	save_reg_to_mem, 2, -12
	.dwcfi	save_reg_to_mem, 1, -16
$C$DW$197	.dwtag  DW_TAG_variable
	.dwattr $C$DW$197, DW_AT_name("xTaskToSuspend")
	.dwattr $C$DW$197, DW_AT_TI_symbol_name("xTaskToSuspend")
	.dwattr $C$DW$197, DW_AT_type(*$C$DW$T$94)
	.dwattr $C$DW$197, DW_AT_location[DW_OP_breg13 0]

$C$DW$198	.dwtag  DW_TAG_variable
	.dwattr $C$DW$198, DW_AT_name("pxTCB")
	.dwattr $C$DW$198, DW_AT_TI_symbol_name("pxTCB")
	.dwattr $C$DW$198, DW_AT_type(*$C$DW$T$135)
	.dwattr $C$DW$198, DW_AT_location[DW_OP_breg13 4]

        STR       A1, [SP, #0]          ; [DPU_V7M3_PIPE] |1717| 
	.dwpsn	file "C:/Tools/Thirdparty/FreeRTOSv202112.00/FreeRTOS/Source/tasks.c",line 1720,column 9,is_stmt,isa 1
$C$DW$199	.dwtag  DW_TAG_TI_branch
	.dwattr $C$DW$199, DW_AT_low_pc(0x00)
	.dwattr $C$DW$199, DW_AT_name("vPortEnterCritical")
	.dwattr $C$DW$199, DW_AT_TI_call

        BL        vPortEnterCritical    ; [DPU_V7M3_PIPE] |1720| 
        ; CALL OCCURS {vPortEnterCritical }  ; [] |1720| 

$C$DW$200	.dwtag  DW_TAG_lexical_block
	.dwattr $C$DW$200, DW_AT_low_pc(0x00)
	.dwattr $C$DW$200, DW_AT_high_pc(0x00)
	.dwpsn	file "C:/Tools/Thirdparty/FreeRTOSv202112.00/FreeRTOS/Source/tasks.c",line 1724,column 13,is_stmt,isa 1
        LDR       A1, [SP, #0]          ; [DPU_V7M3_PIPE] |1724| 
        CBNZ      A1, ||$C$L59||        ; [] 
        ; BRANCHCC OCCURS {||$C$L59||}   ; [] |1724| 
;* --------------------------------------------------------------------------*
        LDR       A1, $C$CON15          ; [DPU_V7M3_PIPE] |1724| 
        LDR       A1, [A1, #0]          ; [DPU_V7M3_PIPE] |1724| 
        B         ||$C$L60||            ; [DPU_V7M3_PIPE] |1724| 
        ; BRANCH OCCURS {||$C$L60||}     ; [] |1724| 
;* --------------------------------------------------------------------------*
||$C$L59||:    
        LDR       A1, [SP, #0]          ; [DPU_V7M3_PIPE] |1724| 
;* --------------------------------------------------------------------------*
||$C$L60||:    
        STR       A1, [SP, #4]          ; [DPU_V7M3_PIPE] |1724| 
	.dwpsn	file "C:/Tools/Thirdparty/FreeRTOSv202112.00/FreeRTOS/Source/tasks.c",line 1730,column 13,is_stmt,isa 1
        LDR       A1, [SP, #4]          ; [DPU_V7M3_PIPE] |1730| 
        ADDS      A1, A1, #4            ; [DPU_V7M3_PIPE] |1730| 
$C$DW$201	.dwtag  DW_TAG_TI_branch
	.dwattr $C$DW$201, DW_AT_low_pc(0x00)
	.dwattr $C$DW$201, DW_AT_name("uxListRemove")
	.dwattr $C$DW$201, DW_AT_TI_call

        BL        uxListRemove          ; [DPU_V7M3_PIPE] |1730| 
        ; CALL OCCURS {uxListRemove }    ; [] |1730| 
        CBNZ      A1, ||$C$L61||        ; [] 
        ; BRANCHCC OCCURS {||$C$L61||}   ; [] |1730| 
;* --------------------------------------------------------------------------*
	.dwpsn	file "C:/Tools/Thirdparty/FreeRTOSv202112.00/FreeRTOS/Source/tasks.c",line 1732,column 17,is_stmt,isa 1
        LDR       A1, [SP, #4]          ; [DPU_V7M3_PIPE] |1732| 
        LDR       A2, $C$CON16          ; [DPU_V7M3_PIPE] |1732| 
        LDR       A3, [A1, #44]         ; [DPU_V7M3_PIPE] |1732| 
        LSLS      A1, A3, #2            ; [DPU_V7M3_PIPE] |1732| 
        ADD       A1, A1, A3, LSL #4    ; [DPU_V7M3_PIPE] |1732| 
        LDR       A1, [A2, +A1]         ; [DPU_V7M3_PIPE] |1732| 
        CBNZ      A1, ||$C$L61||        ; [] 
        ; BRANCHCC OCCURS {||$C$L61||}   ; [] |1732| 
;* --------------------------------------------------------------------------*
        LDR       A1, [SP, #4]          ; [DPU_V7M3_PIPE] |1732| 
        LDR       A3, $C$CON17          ; [DPU_V7M3_PIPE] |1732| 
        LDR       A4, [A1, #44]         ; [DPU_V7M3_PIPE] |1732| 
        LDR       A2, [A3, #0]          ; [DPU_V7M3_PIPE] |1732| 
        MOVS      A1, #1                ; [DPU_V7M3_PIPE] |1732| 
        LSLS      A1, A1, A4            ; [DPU_V7M3_PIPE] |1732| 
        BICS      A2, A2, A1            ; [DPU_V7M3_PIPE] |1732| 
        STR       A2, [A3, #0]          ; [DPU_V7M3_PIPE] |1732| 
;* --------------------------------------------------------------------------*
||$C$L61||:    
	.dwpsn	file "C:/Tools/Thirdparty/FreeRTOSv202112.00/FreeRTOS/Source/tasks.c",line 1740,column 13,is_stmt,isa 1
        LDR       A1, [SP, #4]          ; [DPU_V7M3_PIPE] |1740| 
        LDR       A1, [A1, #40]         ; [DPU_V7M3_PIPE] |1740| 
        CBZ       A1, ||$C$L62||        ; [] 
        ; BRANCHCC OCCURS {||$C$L62||}   ; [] |1740| 
;* --------------------------------------------------------------------------*
	.dwpsn	file "C:/Tools/Thirdparty/FreeRTOSv202112.00/FreeRTOS/Source/tasks.c",line 1742,column 17,is_stmt,isa 1
        LDR       A1, [SP, #4]          ; [DPU_V7M3_PIPE] |1742| 
        ADDS      A1, A1, #24           ; [DPU_V7M3_PIPE] |1742| 
$C$DW$202	.dwtag  DW_TAG_TI_branch
	.dwattr $C$DW$202, DW_AT_low_pc(0x00)
	.dwattr $C$DW$202, DW_AT_name("uxListRemove")
	.dwattr $C$DW$202, DW_AT_TI_call

        BL        uxListRemove          ; [DPU_V7M3_PIPE] |1742| 
        ; CALL OCCURS {uxListRemove }    ; [] |1742| 
;* --------------------------------------------------------------------------*
||$C$L62||:    
	.dwpsn	file "C:/Tools/Thirdparty/FreeRTOSv202112.00/FreeRTOS/Source/tasks.c",line 1749,column 13,is_stmt,isa 1
        LDR       A2, [SP, #4]          ; [] |1749| 
        LDR       A1, $C$CON22          ; [] |1749| 
        B         ||$C$L63||            ; [] 
        ; BRANCH OCCURS {||$C$L63||}     ; [] 
;******************************************************************************
;* CONSTANT TABLE                                                             *
;******************************************************************************
	.sect	".text"
	.align	4
||$C$CON14||:	.bits	xSuspendedTaskList,32
;* --------------------------------------------------------------------------*
||$C$L63||:    
        ADDS      A2, A2, #4            ; [] |1749| 
$C$DW$203	.dwtag  DW_TAG_TI_branch
	.dwattr $C$DW$203, DW_AT_low_pc(0x00)
	.dwattr $C$DW$203, DW_AT_name("vListInsertEnd")
	.dwattr $C$DW$203, DW_AT_TI_call

        BL        vListInsertEnd        ; [] |1749| 
        ; CALL OCCURS {vListInsertEnd }  ; [] |1749| 

$C$DW$204	.dwtag  DW_TAG_lexical_block
	.dwattr $C$DW$204, DW_AT_low_pc(0x00)
	.dwattr $C$DW$204, DW_AT_high_pc(0x00)
$C$DW$205	.dwtag  DW_TAG_variable
	.dwattr $C$DW$205, DW_AT_name("x")
	.dwattr $C$DW$205, DW_AT_TI_symbol_name("x")
	.dwattr $C$DW$205, DW_AT_type(*$C$DW$T$98)
	.dwattr $C$DW$205, DW_AT_location[DW_OP_breg13 8]

	.dwpsn	file "C:/Tools/Thirdparty/FreeRTOSv202112.00/FreeRTOS/Source/tasks.c",line 1755,column 26,is_stmt,isa 1
        MOVS      A1, #0                ; [] |1755| 
        STR       A1, [SP, #8]          ; [] |1755| 
	.dwpsn	file "C:/Tools/Thirdparty/FreeRTOSv202112.00/FreeRTOS/Source/tasks.c",line 1755,column 33,is_stmt,isa 1
        LDR       A1, [SP, #8]          ; [] |1755| 
        CMP       A1, #0                ; [] |1755| 
        BGT       ||$C$L66||            ; [] |1755| 
        ; BRANCHCC OCCURS {||$C$L66||}   ; [] |1755| 
;* --------------------------------------------------------------------------*
;*   BEGIN LOOP ||$C$L64||
;*
;*   Loop source line                : 1755
;*   Loop closing brace source line  : 1763
;*   Known Minimum Trip Count        : 1
;*   Known Maximum Trip Count        : 4294967295
;*   Known Max Trip Count Factor     : 1
;* --------------------------------------------------------------------------*
||$C$L64||:    
	.dwpsn	file "C:/Tools/Thirdparty/FreeRTOSv202112.00/FreeRTOS/Source/tasks.c",line 1757,column 25,is_stmt,isa 1
        LDR       A2, [SP, #8]          ; [DPU_V7M3_PIPE] |1757| 
        LDR       A1, [SP, #4]          ; [DPU_V7M3_PIPE] |1757| 
        ADDS      A1, A1, A2            ; [DPU_V7M3_PIPE] |1757| 
        LDRB      A1, [A1, #96]         ; [DPU_V7M3_PIPE] |1757| 
        CMP       A1, #1                ; [DPU_V7M3_PIPE] |1757| 
        BNE       ||$C$L65||            ; [DPU_V7M3_PIPE] |1757| 
        ; BRANCHCC OCCURS {||$C$L65||}   ; [] |1757| 
;* --------------------------------------------------------------------------*
	.dwpsn	file "C:/Tools/Thirdparty/FreeRTOSv202112.00/FreeRTOS/Source/tasks.c",line 1761,column 29,is_stmt,isa 1
        LDR       A3, [SP, #8]          ; [DPU_V7M3_PIPE] |1761| 
        LDR       A1, [SP, #4]          ; [DPU_V7M3_PIPE] |1761| 
        MOVS      A2, #0                ; [DPU_V7M3_PIPE] |1761| 
        ADDS      A1, A1, A3            ; [DPU_V7M3_PIPE] |1761| 
        STRB      A2, [A1, #96]         ; [DPU_V7M3_PIPE] |1761| 
;* --------------------------------------------------------------------------*
||$C$L65||:    
	.dwpsn	file "C:/Tools/Thirdparty/FreeRTOSv202112.00/FreeRTOS/Source/tasks.c",line 1755,column 76,is_stmt,isa 1
        LDR       A1, [SP, #8]          ; [DPU_V7M3_PIPE] |1755| 
        ADDS      A1, A1, #1            ; [DPU_V7M3_PIPE] |1755| 
        STR       A1, [SP, #8]          ; [DPU_V7M3_PIPE] |1755| 
	.dwpsn	file "C:/Tools/Thirdparty/FreeRTOSv202112.00/FreeRTOS/Source/tasks.c",line 1755,column 33,is_stmt,isa 1
        LDR       A1, [SP, #8]          ; [DPU_V7M3_PIPE] |1755| 
        CMP       A1, #0                ; [DPU_V7M3_PIPE] |1755| 
        BLE       ||$C$L64||            ; [DPU_V7M3_PIPE] |1755| 
        ; BRANCHCC OCCURS {||$C$L64||}   ; [] |1755| 
;* --------------------------------------------------------------------------*
||$C$L66||:    
	.dwendtag $C$DW$204

	.dwendtag $C$DW$200

	.dwpsn	file "C:/Tools/Thirdparty/FreeRTOSv202112.00/FreeRTOS/Source/tasks.c",line 1767,column 9,is_stmt,isa 1
$C$DW$206	.dwtag  DW_TAG_TI_branch
	.dwattr $C$DW$206, DW_AT_low_pc(0x00)
	.dwattr $C$DW$206, DW_AT_name("vPortExitCritical")
	.dwattr $C$DW$206, DW_AT_TI_call

        BL        vPortExitCritical     ; [DPU_V7M3_PIPE] |1767| 
        ; CALL OCCURS {vPortExitCritical }  ; [] |1767| 
	.dwpsn	file "C:/Tools/Thirdparty/FreeRTOSv202112.00/FreeRTOS/Source/tasks.c",line 1769,column 9,is_stmt,isa 1
        LDR       A1, $C$CON20          ; [DPU_V7M3_PIPE] |1769| 
        LDR       A1, [A1, #0]          ; [DPU_V7M3_PIPE] |1769| 
        CBZ       A1, ||$C$L67||        ; [] 
        ; BRANCHCC OCCURS {||$C$L67||}   ; [] |1769| 
;* --------------------------------------------------------------------------*
	.dwpsn	file "C:/Tools/Thirdparty/FreeRTOSv202112.00/FreeRTOS/Source/tasks.c",line 1773,column 13,is_stmt,isa 1
$C$DW$207	.dwtag  DW_TAG_TI_branch
	.dwattr $C$DW$207, DW_AT_low_pc(0x00)
	.dwattr $C$DW$207, DW_AT_name("vPortEnterCritical")
	.dwattr $C$DW$207, DW_AT_TI_call

        BL        vPortEnterCritical    ; [DPU_V7M3_PIPE] |1773| 
        ; CALL OCCURS {vPortEnterCritical }  ; [] |1773| 
	.dwpsn	file "C:/Tools/Thirdparty/FreeRTOSv202112.00/FreeRTOS/Source/tasks.c",line 1775,column 17,is_stmt,isa 1
$C$DW$208	.dwtag  DW_TAG_TI_branch
	.dwattr $C$DW$208, DW_AT_low_pc(0x00)
	.dwattr $C$DW$208, DW_AT_name("prvResetNextTaskUnblockTime")
	.dwattr $C$DW$208, DW_AT_TI_call

        BL        prvResetNextTaskUnblockTime ; [DPU_V7M3_PIPE] |1775| 
        ; CALL OCCURS {prvResetNextTaskUnblockTime }  ; [] |1775| 
	.dwpsn	file "C:/Tools/Thirdparty/FreeRTOSv202112.00/FreeRTOS/Source/tasks.c",line 1777,column 13,is_stmt,isa 1
$C$DW$209	.dwtag  DW_TAG_TI_branch
	.dwattr $C$DW$209, DW_AT_low_pc(0x00)
	.dwattr $C$DW$209, DW_AT_name("vPortExitCritical")
	.dwattr $C$DW$209, DW_AT_TI_call

        BL        vPortExitCritical     ; [DPU_V7M3_PIPE] |1777| 
        ; CALL OCCURS {vPortExitCritical }  ; [] |1777| 
;* --------------------------------------------------------------------------*
||$C$L67||:    
	.dwpsn	file "C:/Tools/Thirdparty/FreeRTOSv202112.00/FreeRTOS/Source/tasks.c",line 1784,column 9,is_stmt,isa 1
        LDR       A1, $C$CON15          ; [DPU_V7M3_PIPE] |1784| 
        LDR       A2, [SP, #4]          ; [DPU_V7M3_PIPE] |1784| 
        LDR       A1, [A1, #0]          ; [DPU_V7M3_PIPE] |1784| 
        CMP       A1, A2                ; [DPU_V7M3_PIPE] |1784| 
        BNE       ||$C$L70||            ; [DPU_V7M3_PIPE] |1784| 
        ; BRANCHCC OCCURS {||$C$L70||}   ; [] |1784| 
;* --------------------------------------------------------------------------*
	.dwpsn	file "C:/Tools/Thirdparty/FreeRTOSv202112.00/FreeRTOS/Source/tasks.c",line 1786,column 13,is_stmt,isa 1
        LDR       A1, $C$CON20          ; [DPU_V7M3_PIPE] |1786| 
        LDR       A1, [A1, #0]          ; [DPU_V7M3_PIPE] |1786| 
        CBZ       A1, ||$C$L68||        ; [] 
        ; BRANCHCC OCCURS {||$C$L68||}   ; [] |1786| 
;* --------------------------------------------------------------------------*
	.dwpsn	file "C:/Tools/Thirdparty/FreeRTOSv202112.00/FreeRTOS/Source/tasks.c",line 1790,column 17,is_stmt,isa 1
        LDR       A2, $C$CON19          ; [DPU_V7M3_PIPE] |1790| 
        MOV       A1, #268435456        ; [DPU_V7M3_PIPE] |1790| 
        STR       A1, [A2, #0]          ; [DPU_V7M3_PIPE] |1790| 
	dsb
	isb
        B         ||$C$L70||            ; [DPU_V7M3_PIPE] 
        ; BRANCH OCCURS {||$C$L70||}     ; [] 
;* --------------------------------------------------------------------------*
||$C$L68||:    
	.dwpsn	file "C:/Tools/Thirdparty/FreeRTOSv202112.00/FreeRTOS/Source/tasks.c",line 1797,column 17,is_stmt,isa 1
        LDR       A1, $C$CON21          ; [DPU_V7M3_PIPE] |1797| 
        LDR       A2, $C$CON22          ; [DPU_V7M3_PIPE] |1797| 
        LDR       A1, [A1, #0]          ; [DPU_V7M3_PIPE] |1797| 
        LDR       A2, [A2, #0]          ; [DPU_V7M3_PIPE] |1797| 
        CMP       A1, A2                ; [DPU_V7M3_PIPE] |1797| 
        BNE       ||$C$L69||            ; [DPU_V7M3_PIPE] |1797| 
        ; BRANCHCC OCCURS {||$C$L69||}   ; [] |1797| 
;* --------------------------------------------------------------------------*
	.dwpsn	file "C:/Tools/Thirdparty/FreeRTOSv202112.00/FreeRTOS/Source/tasks.c",line 1803,column 21,is_stmt,isa 1
        LDR       A2, $C$CON23          ; [DPU_V7M3_PIPE] |1803| 
        MOVS      A1, #0                ; [DPU_V7M3_PIPE] |1803| 
        STR       A1, [A2, #0]          ; [DPU_V7M3_PIPE] |1803| 
        B         ||$C$L70||            ; [DPU_V7M3_PIPE] 
        ; BRANCH OCCURS {||$C$L70||}     ; [] 
;* --------------------------------------------------------------------------*
||$C$L69||:    
	.dwpsn	file "C:/Tools/Thirdparty/FreeRTOSv202112.00/FreeRTOS/Source/tasks.c",line 1807,column 21,is_stmt,isa 1
$C$DW$210	.dwtag  DW_TAG_TI_branch
	.dwattr $C$DW$210, DW_AT_low_pc(0x00)
	.dwattr $C$DW$210, DW_AT_name("vTaskSwitchContext")
	.dwattr $C$DW$210, DW_AT_TI_call

        BL        vTaskSwitchContext    ; [DPU_V7M3_PIPE] |1807| 
        ; CALL OCCURS {vTaskSwitchContext }  ; [] |1807| 
        B         ||$C$L70||            ; [DPU_V7M3_PIPE] 
        ; BRANCH OCCURS {||$C$L70||}     ; [] 
;******************************************************************************
;* CONSTANT TABLE                                                             *
;******************************************************************************
	.sect	".text"
	.align	4
||$C$CON15||:	.bits	pxCurrentTCB,32
;* --------------------------------------------------------------------------*
;* --------------------------------------------------------------------------*
||$C$L70||:    
$C$DW$211	.dwtag  DW_TAG_TI_branch
	.dwattr $C$DW$211, DW_AT_low_pc(0x00)
	.dwattr $C$DW$211, DW_AT_TI_return

        POP       {A2, A3, A4, PC}      ; [DPU_V7M3_PIPE] 
	.dwcfi	cfa_offset, 0
	.dwcfi	restore_reg, 3
	.dwcfi	restore_reg, 2
	.dwcfi	restore_reg, 1
        ; BRANCH OCCURS                  ; [] 
	.dwattr $C$DW$195, DW_AT_TI_end_file("C:/Tools/Thirdparty/FreeRTOSv202112.00/FreeRTOS/Source/tasks.c")
	.dwattr $C$DW$195, DW_AT_TI_end_line(0x717)
	.dwattr $C$DW$195, DW_AT_TI_end_column(0x05)
	.dwendentry
	.dwendtag $C$DW$195

	.sect	".text"
	.clink
	.thumbfunc prvTaskIsTaskSuspended
	.thumb

$C$DW$212	.dwtag  DW_TAG_subprogram
	.dwattr $C$DW$212, DW_AT_name("prvTaskIsTaskSuspended")
	.dwattr $C$DW$212, DW_AT_low_pc(prvTaskIsTaskSuspended)
	.dwattr $C$DW$212, DW_AT_high_pc(0x00)
	.dwattr $C$DW$212, DW_AT_TI_symbol_name("prvTaskIsTaskSuspended")
	.dwattr $C$DW$212, DW_AT_type(*$C$DW$T$98)
	.dwattr $C$DW$212, DW_AT_TI_begin_file("C:/Tools/Thirdparty/FreeRTOSv202112.00/FreeRTOS/Source/tasks.c")
	.dwattr $C$DW$212, DW_AT_TI_begin_line(0x71e)
	.dwattr $C$DW$212, DW_AT_TI_begin_column(0x17)
	.dwattr $C$DW$212, DW_AT_decl_file("C:/Tools/Thirdparty/FreeRTOSv202112.00/FreeRTOS/Source/tasks.c")
	.dwattr $C$DW$212, DW_AT_decl_line(0x71e)
	.dwattr $C$DW$212, DW_AT_decl_column(0x17)
	.dwattr $C$DW$212, DW_AT_TI_max_frame_size(0x10)
	.dwpsn	file "C:/Tools/Thirdparty/FreeRTOSv202112.00/FreeRTOS/Source/tasks.c",line 1823,column 5,is_stmt,address prvTaskIsTaskSuspended,isa 1

	.dwfde $C$DW$CIE, prvTaskIsTaskSuspended
$C$DW$213	.dwtag  DW_TAG_formal_parameter
	.dwattr $C$DW$213, DW_AT_name("xTask")
	.dwattr $C$DW$213, DW_AT_TI_symbol_name("xTask")
	.dwattr $C$DW$213, DW_AT_type(*$C$DW$T$163)
	.dwattr $C$DW$213, DW_AT_location[DW_OP_reg0]


;*****************************************************************************
;* FUNCTION NAME: prvTaskIsTaskSuspended                                     *
;*                                                                           *
;*   Regs Modified     : A1,A2,SP,SR                                         *
;*   Regs Used         : A1,A2,SP,LR,SR                                      *
;*   Local Frame Size  : 0 Args + 12 Auto + 0 Save = 12 byte                 *
;*****************************************************************************
prvTaskIsTaskSuspended:
;* --------------------------------------------------------------------------*
	.dwcfi	cfa_offset, 0
        SUB       SP, SP, #16           ; [DPU_V7M3_PIPE] 
	.dwcfi	cfa_offset, 16
$C$DW$214	.dwtag  DW_TAG_variable
	.dwattr $C$DW$214, DW_AT_name("xTask")
	.dwattr $C$DW$214, DW_AT_TI_symbol_name("xTask")
	.dwattr $C$DW$214, DW_AT_type(*$C$DW$T$163)
	.dwattr $C$DW$214, DW_AT_location[DW_OP_breg13 0]

$C$DW$215	.dwtag  DW_TAG_variable
	.dwattr $C$DW$215, DW_AT_name("xReturn")
	.dwattr $C$DW$215, DW_AT_TI_symbol_name("xReturn")
	.dwattr $C$DW$215, DW_AT_type(*$C$DW$T$98)
	.dwattr $C$DW$215, DW_AT_location[DW_OP_breg13 4]

$C$DW$216	.dwtag  DW_TAG_variable
	.dwattr $C$DW$216, DW_AT_name("pxTCB")
	.dwattr $C$DW$216, DW_AT_TI_symbol_name("pxTCB")
	.dwattr $C$DW$216, DW_AT_type(*$C$DW$T$354)
	.dwattr $C$DW$216, DW_AT_location[DW_OP_breg13 8]

        STR       A1, [SP, #0]          ; [DPU_V7M3_PIPE] |1823| 
	.dwpsn	file "C:/Tools/Thirdparty/FreeRTOSv202112.00/FreeRTOS/Source/tasks.c",line 1824,column 28,is_stmt,isa 1
        MOVS      A1, #0                ; [DPU_V7M3_PIPE] |1824| 
        STR       A1, [SP, #4]          ; [DPU_V7M3_PIPE] |1824| 
	.dwpsn	file "C:/Tools/Thirdparty/FreeRTOSv202112.00/FreeRTOS/Source/tasks.c",line 1825,column 35,is_stmt,isa 1
        LDR       A1, [SP, #0]          ; [DPU_V7M3_PIPE] |1825| 
        STR       A1, [SP, #8]          ; [DPU_V7M3_PIPE] |1825| 
	.dwpsn	file "C:/Tools/Thirdparty/FreeRTOSv202112.00/FreeRTOS/Source/tasks.c",line 1834,column 9,is_stmt,isa 1
        LDR       A1, [SP, #8]          ; [DPU_V7M3_PIPE] |1834| 
        LDR       A2, $C$CON22          ; [DPU_V7M3_PIPE] |1834| 
        LDR       A1, [A1, #20]         ; [DPU_V7M3_PIPE] |1834| 
        CMP       A2, A1                ; [DPU_V7M3_PIPE] |1834| 
        BNE       ||$C$L71||            ; [DPU_V7M3_PIPE] |1834| 
        ; BRANCHCC OCCURS {||$C$L71||}   ; [] |1834| 
;* --------------------------------------------------------------------------*
        MOVS      A1, #1                ; [DPU_V7M3_PIPE] |1834| 
        B         ||$C$L72||            ; [DPU_V7M3_PIPE] |1834| 
        ; BRANCH OCCURS {||$C$L72||}     ; [] |1834| 
;* --------------------------------------------------------------------------*
||$C$L71||:    
        MOVS      A1, #0                ; [DPU_V7M3_PIPE] |1834| 
;* --------------------------------------------------------------------------*
||$C$L72||:    
        CBZ       A1, ||$C$L77||        ; [] 
        ; BRANCHCC OCCURS {||$C$L77||}   ; [] |1834| 
;* --------------------------------------------------------------------------*
	.dwpsn	file "C:/Tools/Thirdparty/FreeRTOSv202112.00/FreeRTOS/Source/tasks.c",line 1837,column 13,is_stmt,isa 1
        LDR       A1, [SP, #8]          ; [DPU_V7M3_PIPE] |1837| 
        LDR       A2, $C$CON24          ; [DPU_V7M3_PIPE] |1837| 
        LDR       A1, [A1, #40]         ; [DPU_V7M3_PIPE] |1837| 
        CMP       A2, A1                ; [DPU_V7M3_PIPE] |1837| 
        BNE       ||$C$L73||            ; [DPU_V7M3_PIPE] |1837| 
        ; BRANCHCC OCCURS {||$C$L73||}   ; [] |1837| 
;* --------------------------------------------------------------------------*
        MOVS      A1, #1                ; [DPU_V7M3_PIPE] |1837| 
        B         ||$C$L74||            ; [DPU_V7M3_PIPE] |1837| 
        ; BRANCH OCCURS {||$C$L74||}     ; [] |1837| 
;* --------------------------------------------------------------------------*
||$C$L73||:    
        MOVS      A1, #0                ; [DPU_V7M3_PIPE] |1837| 
;* --------------------------------------------------------------------------*
||$C$L74||:    
        CBNZ      A1, ||$C$L77||        ; [] 
        ; BRANCHCC OCCURS {||$C$L77||}   ; [] |1837| 
;* --------------------------------------------------------------------------*
	.dwpsn	file "C:/Tools/Thirdparty/FreeRTOSv202112.00/FreeRTOS/Source/tasks.c",line 1841,column 17,is_stmt,isa 1
        LDR       A1, [SP, #8]          ; [DPU_V7M3_PIPE] |1841| 
        LDR       A1, [A1, #40]         ; [DPU_V7M3_PIPE] |1841| 
        CBNZ      A1, ||$C$L75||        ; [] 
        ; BRANCHCC OCCURS {||$C$L75||}   ; [] |1841| 
;* --------------------------------------------------------------------------*
        MOVS      A1, #1                ; [DPU_V7M3_PIPE] |1841| 
        B         ||$C$L76||            ; [DPU_V7M3_PIPE] |1841| 
        ; BRANCH OCCURS {||$C$L76||}     ; [] |1841| 
;* --------------------------------------------------------------------------*
||$C$L75||:    
        MOVS      A1, #0                ; [DPU_V7M3_PIPE] |1841| 
;* --------------------------------------------------------------------------*
||$C$L76||:    
        CBZ       A1, ||$C$L77||        ; [] 
        ; BRANCHCC OCCURS {||$C$L77||}   ; [] |1841| 
;* --------------------------------------------------------------------------*
	.dwpsn	file "C:/Tools/Thirdparty/FreeRTOSv202112.00/FreeRTOS/Source/tasks.c",line 1843,column 21,is_stmt,isa 1
        MOVS      A1, #1                ; [DPU_V7M3_PIPE] |1843| 
        STR       A1, [SP, #4]          ; [DPU_V7M3_PIPE] |1843| 
;* --------------------------------------------------------------------------*
||$C$L77||:    
	.dwpsn	file "C:/Tools/Thirdparty/FreeRTOSv202112.00/FreeRTOS/Source/tasks.c",line 1860,column 9,is_stmt,isa 1
        LDR       A1, [SP, #4]          ; [DPU_V7M3_PIPE] |1860| 
	.dwpsn	file "C:/Tools/Thirdparty/FreeRTOSv202112.00/FreeRTOS/Source/tasks.c",line 1861,column 5,is_stmt,isa 1
        ADD       SP, SP, #16           ; [DPU_V7M3_PIPE] 
	.dwcfi	cfa_offset, 0
$C$DW$217	.dwtag  DW_TAG_TI_branch
	.dwattr $C$DW$217, DW_AT_low_pc(0x00)
	.dwattr $C$DW$217, DW_AT_TI_return

        BX        LR                    ; [DPU_V7M3_PIPE] 
        ; BRANCH OCCURS                  ; [] 
	.dwattr $C$DW$212, DW_AT_TI_end_file("C:/Tools/Thirdparty/FreeRTOSv202112.00/FreeRTOS/Source/tasks.c")
	.dwattr $C$DW$212, DW_AT_TI_end_line(0x745)
	.dwattr $C$DW$212, DW_AT_TI_end_column(0x05)
	.dwendentry
	.dwendtag $C$DW$212

	.sect	".text"
	.clink
	.thumbfunc vTaskResume
	.thumb
	.global	vTaskResume

$C$DW$218	.dwtag  DW_TAG_subprogram
	.dwattr $C$DW$218, DW_AT_name("vTaskResume")
	.dwattr $C$DW$218, DW_AT_low_pc(vTaskResume)
	.dwattr $C$DW$218, DW_AT_high_pc(0x00)
	.dwattr $C$DW$218, DW_AT_TI_symbol_name("vTaskResume")
	.dwattr $C$DW$218, DW_AT_external
	.dwattr $C$DW$218, DW_AT_TI_begin_file("C:/Tools/Thirdparty/FreeRTOSv202112.00/FreeRTOS/Source/tasks.c")
	.dwattr $C$DW$218, DW_AT_TI_begin_line(0x74c)
	.dwattr $C$DW$218, DW_AT_TI_begin_column(0x0a)
	.dwattr $C$DW$218, DW_AT_decl_file("C:/Tools/Thirdparty/FreeRTOSv202112.00/FreeRTOS/Source/tasks.c")
	.dwattr $C$DW$218, DW_AT_decl_line(0x74c)
	.dwattr $C$DW$218, DW_AT_decl_column(0x0a)
	.dwattr $C$DW$218, DW_AT_TI_max_frame_size(0x10)
	.dwpsn	file "C:/Tools/Thirdparty/FreeRTOSv202112.00/FreeRTOS/Source/tasks.c",line 1869,column 5,is_stmt,address vTaskResume,isa 1

	.dwfde $C$DW$CIE, vTaskResume
$C$DW$219	.dwtag  DW_TAG_formal_parameter
	.dwattr $C$DW$219, DW_AT_name("xTaskToResume")
	.dwattr $C$DW$219, DW_AT_TI_symbol_name("xTaskToResume")
	.dwattr $C$DW$219, DW_AT_type(*$C$DW$T$94)
	.dwattr $C$DW$219, DW_AT_location[DW_OP_reg0]


;*****************************************************************************
;* FUNCTION NAME: vTaskResume                                                *
;*                                                                           *
;*   Regs Modified     : A1,A2,A3,A4,V9,SP,LR,SR,D0,D0_hi,D1,D1_hi,D2,D2_hi, *
;*                           D3,D3_hi,D4,D4_hi,D5,D5_hi,D6,D6_hi,D7,D7_hi,   *
;*                           FPEXC,FPSCR                                     *
;*   Regs Used         : A1,A2,A3,A4,V9,SP,LR,SR,D0,D0_hi,D1,D1_hi,D2,D2_hi, *
;*                           D3,D3_hi,D4,D4_hi,D5,D5_hi,D6,D6_hi,D7,D7_hi,   *
;*                           FPEXC,FPSCR                                     *
;*   Local Frame Size  : 0 Args + 12 Auto + 4 Save = 16 byte                 *
;*****************************************************************************
vTaskResume:
;* --------------------------------------------------------------------------*
	.dwcfi	cfa_offset, 0
        PUSH      {A2, A3, A4, LR}      ; [DPU_V7M3_PIPE] 
	.dwcfi	cfa_offset, 16
	.dwcfi	save_reg_to_mem, 14, -4
	.dwcfi	save_reg_to_mem, 3, -8
	.dwcfi	save_reg_to_mem, 2, -12
	.dwcfi	save_reg_to_mem, 1, -16
$C$DW$220	.dwtag  DW_TAG_variable
	.dwattr $C$DW$220, DW_AT_name("xTaskToResume")
	.dwattr $C$DW$220, DW_AT_TI_symbol_name("xTaskToResume")
	.dwattr $C$DW$220, DW_AT_type(*$C$DW$T$94)
	.dwattr $C$DW$220, DW_AT_location[DW_OP_breg13 0]

$C$DW$221	.dwtag  DW_TAG_variable
	.dwattr $C$DW$221, DW_AT_name("pxTCB")
	.dwattr $C$DW$221, DW_AT_TI_symbol_name("pxTCB")
	.dwattr $C$DW$221, DW_AT_type(*$C$DW$T$356)
	.dwattr $C$DW$221, DW_AT_location[DW_OP_breg13 4]

        STR       A1, [SP, #0]          ; [DPU_V7M3_PIPE] |1869| 
	.dwpsn	file "C:/Tools/Thirdparty/FreeRTOSv202112.00/FreeRTOS/Source/tasks.c",line 1870,column 29,is_stmt,isa 1
        LDR       A1, [SP, #0]          ; [DPU_V7M3_PIPE] |1870| 
        STR       A1, [SP, #4]          ; [DPU_V7M3_PIPE] |1870| 

$C$DW$222	.dwtag  DW_TAG_lexical_block
	.dwattr $C$DW$222, DW_AT_low_pc(0x00)
	.dwattr $C$DW$222, DW_AT_high_pc(0x00)
	.dwpsn	file "C:/Tools/Thirdparty/FreeRTOSv202112.00/FreeRTOS/Source/tasks.c",line 1877,column 9,is_stmt,isa 1
        LDR       A1, $C$CON23          ; [DPU_V7M3_PIPE] |1877| 
        LDR       A2, [SP, #4]          ; [DPU_V7M3_PIPE] |1877| 
        LDR       A1, [A1, #0]          ; [DPU_V7M3_PIPE] |1877| 
        CMP       A1, A2                ; [DPU_V7M3_PIPE] |1877| 
        BEQ       ||$C$L79||            ; [DPU_V7M3_PIPE] |1877| 
        ; BRANCHCC OCCURS {||$C$L79||}   ; [] |1877| 
;* --------------------------------------------------------------------------*
        LDR       A1, [SP, #4]          ; [DPU_V7M3_PIPE] |1877| 
        CMP       A1, #0                ; [DPU_V7M3_PIPE] |1877| 
        BEQ       ||$C$L79||            ; [DPU_V7M3_PIPE] |1877| 
        ; BRANCHCC OCCURS {||$C$L79||}   ; [] |1877| 
;* --------------------------------------------------------------------------*

$C$DW$223	.dwtag  DW_TAG_lexical_block
	.dwattr $C$DW$223, DW_AT_low_pc(0x00)
	.dwattr $C$DW$223, DW_AT_high_pc(0x00)
	.dwpsn	file "C:/Tools/Thirdparty/FreeRTOSv202112.00/FreeRTOS/Source/tasks.c",line 1879,column 13,is_stmt,isa 1
$C$DW$224	.dwtag  DW_TAG_TI_branch
	.dwattr $C$DW$224, DW_AT_low_pc(0x00)
	.dwattr $C$DW$224, DW_AT_name("vPortEnterCritical")
	.dwattr $C$DW$224, DW_AT_TI_call

        BL        vPortEnterCritical    ; [DPU_V7M3_PIPE] |1879| 
        ; CALL OCCURS {vPortEnterCritical }  ; [] |1879| 

$C$DW$225	.dwtag  DW_TAG_lexical_block
	.dwattr $C$DW$225, DW_AT_low_pc(0x00)
	.dwattr $C$DW$225, DW_AT_high_pc(0x00)

$C$DW$226	.dwtag  DW_TAG_lexical_block
	.dwattr $C$DW$226, DW_AT_low_pc(0x00)
	.dwattr $C$DW$226, DW_AT_high_pc(0x00)
	.dwpsn	file "C:/Tools/Thirdparty/FreeRTOSv202112.00/FreeRTOS/Source/tasks.c",line 1881,column 17,is_stmt,isa 1
        LDR       A1, [SP, #4]          ; [DPU_V7M3_PIPE] |1881| 
$C$DW$227	.dwtag  DW_TAG_TI_branch
	.dwattr $C$DW$227, DW_AT_low_pc(0x00)
	.dwattr $C$DW$227, DW_AT_name("prvTaskIsTaskSuspended")
	.dwattr $C$DW$227, DW_AT_TI_call

        BL        prvTaskIsTaskSuspended ; [DPU_V7M3_PIPE] |1881| 
        ; CALL OCCURS {prvTaskIsTaskSuspended }  ; [] |1881| 
        CMP       A1, #0                ; [DPU_V7M3_PIPE] |1881| 
        BEQ       ||$C$L78||            ; [DPU_V7M3_PIPE] |1881| 
        ; BRANCHCC OCCURS {||$C$L78||}   ; [] |1881| 
;* --------------------------------------------------------------------------*

$C$DW$228	.dwtag  DW_TAG_lexical_block
	.dwattr $C$DW$228, DW_AT_low_pc(0x00)
	.dwattr $C$DW$228, DW_AT_high_pc(0x00)
	.dwpsn	file "C:/Tools/Thirdparty/FreeRTOSv202112.00/FreeRTOS/Source/tasks.c",line 1887,column 21,is_stmt,isa 1
        LDR       A1, [SP, #4]          ; [DPU_V7M3_PIPE] |1887| 
        ADDS      A1, A1, #4            ; [DPU_V7M3_PIPE] |1887| 
$C$DW$229	.dwtag  DW_TAG_TI_branch
	.dwattr $C$DW$229, DW_AT_low_pc(0x00)
	.dwattr $C$DW$229, DW_AT_name("uxListRemove")
	.dwattr $C$DW$229, DW_AT_TI_call

        BL        uxListRemove          ; [DPU_V7M3_PIPE] |1887| 
        ; CALL OCCURS {uxListRemove }    ; [] |1887| 
	.dwpsn	file "C:/Tools/Thirdparty/FreeRTOSv202112.00/FreeRTOS/Source/tasks.c",line 1888,column 21,is_stmt,isa 1
        LDR       A1, [SP, #4]          ; [DPU_V7M3_PIPE] |1888| 
        LDR       A2, $C$CON17          ; [DPU_V7M3_PIPE] |1888| 
        LDR       A4, [A1, #44]         ; [DPU_V7M3_PIPE] |1888| 
        LDR       A3, [A2, #0]          ; [DPU_V7M3_PIPE] |1888| 
        MOVS      A1, #1                ; [DPU_V7M3_PIPE] |1888| 
        LSLS      A1, A1, A4            ; [DPU_V7M3_PIPE] |1888| 
        ORRS      A1, A1, A3            ; [DPU_V7M3_PIPE] |1888| 
        STR       A1, [A2, #0]          ; [DPU_V7M3_PIPE] |1888| 

$C$DW$230	.dwtag  DW_TAG_lexical_block
	.dwattr $C$DW$230, DW_AT_low_pc(0x00)
	.dwattr $C$DW$230, DW_AT_high_pc(0x00)
$C$DW$231	.dwtag  DW_TAG_variable
	.dwattr $C$DW$231, DW_AT_name("pxIndex")
	.dwattr $C$DW$231, DW_AT_TI_symbol_name("pxIndex")
	.dwattr $C$DW$231, DW_AT_type(*$C$DW$T$124)
	.dwattr $C$DW$231, DW_AT_location[DW_OP_breg13 8]

        LDR       A1, [SP, #4]          ; [DPU_V7M3_PIPE] |1888| 
        LDR       A2, $C$CON18          ; [DPU_V7M3_PIPE] |1888| 
        LDR       A3, [A1, #44]         ; [DPU_V7M3_PIPE] |1888| 
        LSLS      A1, A3, #2            ; [DPU_V7M3_PIPE] |1888| 
        ADD       A1, A1, A3, LSL #4    ; [DPU_V7M3_PIPE] |1888| 
        LDR       A1, [A2, +A1]         ; [DPU_V7M3_PIPE] |1888| 
        LDR       A2, [SP, #4]          ; [DPU_V7M3_PIPE] |1888| 
        STR       A1, [SP, #8]          ; [DPU_V7M3_PIPE] |1888| 
        LDR       A1, [SP, #8]          ; [DPU_V7M3_PIPE] |1888| 
        STR       A1, [A2, #8]          ; [DPU_V7M3_PIPE] |1888| 
        LDR       A1, [SP, #8]          ; [DPU_V7M3_PIPE] |1888| 
        LDR       A2, [SP, #4]          ; [DPU_V7M3_PIPE] |1888| 
        LDR       A1, [A1, #8]          ; [DPU_V7M3_PIPE] |1888| 
        STR       A1, [A2, #12]         ; [DPU_V7M3_PIPE] |1888| 
        LDR       A1, [SP, #4]          ; [DPU_V7M3_PIPE] |1888| 
        LDR       A2, [SP, #8]          ; [DPU_V7M3_PIPE] |1888| 
        ADDS      A1, A1, #4            ; [DPU_V7M3_PIPE] |1888| 
        LDR       A2, [A2, #8]          ; [DPU_V7M3_PIPE] |1888| 
        LDR       A3, $C$CON16          ; [DPU_V7M3_PIPE] |1888| 
        STR       A1, [A2, #4]          ; [DPU_V7M3_PIPE] |1888| 
        LDR       A1, [SP, #4]          ; [DPU_V7M3_PIPE] |1888| 
        LDR       A2, [SP, #8]          ; [DPU_V7M3_PIPE] |1888| 
        ADDS      A1, A1, #4            ; [DPU_V7M3_PIPE] |1888| 
        STR       A1, [A2, #8]          ; [DPU_V7M3_PIPE] |1888| 
        LDR       A1, [SP, #4]          ; [DPU_V7M3_PIPE] |1888| 
        LDR       A2, [SP, #4]          ; [DPU_V7M3_PIPE] |1888| 
        LDR       A4, [A1, #44]         ; [DPU_V7M3_PIPE] |1888| 
        LSLS      A1, A4, #2            ; [DPU_V7M3_PIPE] |1888| 
        ADD       A1, A1, A4, LSL #4    ; [DPU_V7M3_PIPE] |1888| 
        ADDS      A1, A1, A3            ; [DPU_V7M3_PIPE] |1888| 
        STR       A1, [A2, #20]         ; [DPU_V7M3_PIPE] |1888| 
        LDR       A1, [SP, #4]          ; [DPU_V7M3_PIPE] |1888| 
        LDR       A3, $C$CON16          ; [DPU_V7M3_PIPE] |1888| 
        LDR       A2, [A1, #44]         ; [DPU_V7M3_PIPE] |1888| 
        LSLS      A1, A2, #2            ; [DPU_V7M3_PIPE] |1888| 
        ADD       A1, A1, A2, LSL #4    ; [DPU_V7M3_PIPE] |1888| 
        LDR       A2, [A1, +A3]         ; [DPU_V7M3_PIPE] |1888| 
        ADDS      A2, A2, #1            ; [DPU_V7M3_PIPE] |1888| 
        STR       A2, [A1, +A3]         ; [DPU_V7M3_PIPE] |1888| 
	.dwendtag $C$DW$230

	.dwpsn	file "C:/Tools/Thirdparty/FreeRTOSv202112.00/FreeRTOS/Source/tasks.c",line 1891,column 21,is_stmt,isa 1
        LDR       A1, $C$CON23          ; [DPU_V7M3_PIPE] |1891| 
        LDR       A2, [SP, #4]          ; [DPU_V7M3_PIPE] |1891| 
        LDR       A1, [A1, #0]          ; [DPU_V7M3_PIPE] |1891| 
        LDR       A2, [A2, #44]         ; [DPU_V7M3_PIPE] |1891| 
        LDR       A1, [A1, #44]         ; [DPU_V7M3_PIPE] |1891| 
        CMP       A1, A2                ; [DPU_V7M3_PIPE] |1891| 
        BHI       ||$C$L78||            ; [DPU_V7M3_PIPE] |1891| 
        ; BRANCHCC OCCURS {||$C$L78||}   ; [] |1891| 
;* --------------------------------------------------------------------------*
	.dwpsn	file "C:/Tools/Thirdparty/FreeRTOSv202112.00/FreeRTOS/Source/tasks.c",line 1896,column 25,is_stmt,isa 1
        LDR       A2, $C$CON19          ; [DPU_V7M3_PIPE] |1896| 
        MOV       A1, #268435456        ; [DPU_V7M3_PIPE] |1896| 
        STR       A1, [A2, #0]          ; [DPU_V7M3_PIPE] |1896| 
	dsb
	isb
        B         ||$C$L78||            ; [DPU_V7M3_PIPE] 
        ; BRANCH OCCURS {||$C$L78||}     ; [] 
;* --------------------------------------------------------------------------*
	.dwendtag $C$DW$228

;* --------------------------------------------------------------------------*
||$C$L78||:    
	.dwendtag $C$DW$226

	.dwendtag $C$DW$225

	.dwpsn	file "C:/Tools/Thirdparty/FreeRTOSv202112.00/FreeRTOS/Source/tasks.c",line 1908,column 13,is_stmt,isa 1
$C$DW$232	.dwtag  DW_TAG_TI_branch
	.dwattr $C$DW$232, DW_AT_low_pc(0x00)
	.dwattr $C$DW$232, DW_AT_name("vPortExitCritical")
	.dwattr $C$DW$232, DW_AT_TI_call

        BL        vPortExitCritical     ; [DPU_V7M3_PIPE] |1908| 
        ; CALL OCCURS {vPortExitCritical }  ; [] |1908| 
	.dwendtag $C$DW$223

        B         ||$C$L79||            ; [DPU_V7M3_PIPE] 
        ; BRANCH OCCURS {||$C$L79||}     ; [] 
;******************************************************************************
;* CONSTANT TABLE                                                             *
;******************************************************************************
	.sect	".text"
	.align	4
||$C$CON16||:	.bits	pxReadyTasksLists,32
;* --------------------------------------------------------------------------*
	.dwendtag $C$DW$222

;* --------------------------------------------------------------------------*
||$C$L79||:    
$C$DW$233	.dwtag  DW_TAG_TI_branch
	.dwattr $C$DW$233, DW_AT_low_pc(0x00)
	.dwattr $C$DW$233, DW_AT_TI_return

        POP       {A2, A3, A4, PC}      ; [DPU_V7M3_PIPE] 
	.dwcfi	cfa_offset, 0
	.dwcfi	restore_reg, 3
	.dwcfi	restore_reg, 2
	.dwcfi	restore_reg, 1
        ; BRANCH OCCURS                  ; [] 
	.dwattr $C$DW$218, DW_AT_TI_end_file("C:/Tools/Thirdparty/FreeRTOSv202112.00/FreeRTOS/Source/tasks.c")
	.dwattr $C$DW$218, DW_AT_TI_end_line(0x77a)
	.dwattr $C$DW$218, DW_AT_TI_end_column(0x05)
	.dwendentry
	.dwendtag $C$DW$218

;******************************************************************************
;* CONSTANT TABLE                                                             *
;******************************************************************************
	.sect	".text"
	.align	4
||$C$CON17||:	.bits	uxTopReadyPriority,32
	.align	4
||$C$CON18||:	.bits	pxReadyTasksLists+4,32
	.align	4
||$C$CON19||:	.bits		0xe000ed04,32

	.sect	".text"
	.clink
	.thumbfunc xTaskResumeFromISR
	.thumb
	.global	xTaskResumeFromISR

$C$DW$234	.dwtag  DW_TAG_subprogram
	.dwattr $C$DW$234, DW_AT_name("xTaskResumeFromISR")
	.dwattr $C$DW$234, DW_AT_low_pc(xTaskResumeFromISR)
	.dwattr $C$DW$234, DW_AT_high_pc(0x00)
	.dwattr $C$DW$234, DW_AT_TI_symbol_name("xTaskResumeFromISR")
	.dwattr $C$DW$234, DW_AT_external
	.dwattr $C$DW$234, DW_AT_type(*$C$DW$T$98)
	.dwattr $C$DW$234, DW_AT_TI_begin_file("C:/Tools/Thirdparty/FreeRTOSv202112.00/FreeRTOS/Source/tasks.c")
	.dwattr $C$DW$234, DW_AT_TI_begin_line(0x782)
	.dwattr $C$DW$234, DW_AT_TI_begin_column(0x10)
	.dwattr $C$DW$234, DW_AT_decl_file("C:/Tools/Thirdparty/FreeRTOSv202112.00/FreeRTOS/Source/tasks.c")
	.dwattr $C$DW$234, DW_AT_decl_line(0x782)
	.dwattr $C$DW$234, DW_AT_decl_column(0x10)
	.dwattr $C$DW$234, DW_AT_TI_max_frame_size(0x18)
	.dwpsn	file "C:/Tools/Thirdparty/FreeRTOSv202112.00/FreeRTOS/Source/tasks.c",line 1923,column 5,is_stmt,address xTaskResumeFromISR,isa 1

	.dwfde $C$DW$CIE, xTaskResumeFromISR
$C$DW$235	.dwtag  DW_TAG_formal_parameter
	.dwattr $C$DW$235, DW_AT_name("xTaskToResume")
	.dwattr $C$DW$235, DW_AT_TI_symbol_name("xTaskToResume")
	.dwattr $C$DW$235, DW_AT_type(*$C$DW$T$94)
	.dwattr $C$DW$235, DW_AT_location[DW_OP_reg0]


;*****************************************************************************
;* FUNCTION NAME: xTaskResumeFromISR                                         *
;*                                                                           *
;*   Regs Modified     : A1,A2,A3,A4,V9,SP,LR,SR,D0,D0_hi,D1,D1_hi,D2,D2_hi, *
;*                           D3,D3_hi,D4,D4_hi,D5,D5_hi,D6,D6_hi,D7,D7_hi,   *
;*                           FPEXC,FPSCR                                     *
;*   Regs Used         : A1,A2,A3,A4,V9,SP,LR,SR,D0,D0_hi,D1,D1_hi,D2,D2_hi, *
;*                           D3,D3_hi,D4,D4_hi,D5,D5_hi,D6,D6_hi,D7,D7_hi,   *
;*                           FPEXC,FPSCR                                     *
;*   Local Frame Size  : 0 Args + 20 Auto + 4 Save = 24 byte                 *
;*****************************************************************************
xTaskResumeFromISR:
;* --------------------------------------------------------------------------*
	.dwcfi	cfa_offset, 0
        PUSH      {LR}                  ; [DPU_V7M3_PIPE] 
	.dwcfi	cfa_offset, 4
	.dwcfi	save_reg_to_mem, 14, -4
        SUB       SP, SP, #20           ; [DPU_V7M3_PIPE] 
	.dwcfi	cfa_offset, 24
$C$DW$236	.dwtag  DW_TAG_variable
	.dwattr $C$DW$236, DW_AT_name("xTaskToResume")
	.dwattr $C$DW$236, DW_AT_TI_symbol_name("xTaskToResume")
	.dwattr $C$DW$236, DW_AT_type(*$C$DW$T$94)
	.dwattr $C$DW$236, DW_AT_location[DW_OP_breg13 0]

$C$DW$237	.dwtag  DW_TAG_variable
	.dwattr $C$DW$237, DW_AT_name("xYieldRequired")
	.dwattr $C$DW$237, DW_AT_TI_symbol_name("xYieldRequired")
	.dwattr $C$DW$237, DW_AT_type(*$C$DW$T$98)
	.dwattr $C$DW$237, DW_AT_location[DW_OP_breg13 4]

$C$DW$238	.dwtag  DW_TAG_variable
	.dwattr $C$DW$238, DW_AT_name("pxTCB")
	.dwattr $C$DW$238, DW_AT_TI_symbol_name("pxTCB")
	.dwattr $C$DW$238, DW_AT_type(*$C$DW$T$356)
	.dwattr $C$DW$238, DW_AT_location[DW_OP_breg13 8]

$C$DW$239	.dwtag  DW_TAG_variable
	.dwattr $C$DW$239, DW_AT_name("uxSavedInterruptStatus")
	.dwattr $C$DW$239, DW_AT_TI_symbol_name("uxSavedInterruptStatus")
	.dwattr $C$DW$239, DW_AT_type(*$C$DW$T$27)
	.dwattr $C$DW$239, DW_AT_location[DW_OP_breg13 12]

        STR       A1, [SP, #0]          ; [DPU_V7M3_PIPE] |1923| 
	.dwpsn	file "C:/Tools/Thirdparty/FreeRTOSv202112.00/FreeRTOS/Source/tasks.c",line 1924,column 35,is_stmt,isa 1
        MOVS      A1, #0                ; [DPU_V7M3_PIPE] |1924| 
        STR       A1, [SP, #4]          ; [DPU_V7M3_PIPE] |1924| 
	.dwpsn	file "C:/Tools/Thirdparty/FreeRTOSv202112.00/FreeRTOS/Source/tasks.c",line 1925,column 29,is_stmt,isa 1
        LDR       A1, [SP, #0]          ; [DPU_V7M3_PIPE] |1925| 
        STR       A1, [SP, #8]          ; [DPU_V7M3_PIPE] |1925| 
	.dwpsn	file "C:/Tools/Thirdparty/FreeRTOSv202112.00/FreeRTOS/Source/tasks.c",line 1948,column 9,is_stmt,isa 1
        MRS       A2, BASEPRI           ; [DPU_V7M3_PIPE] |1948| 
        MOVS      A1, #160              ; [DPU_V7M3_PIPE] |1948| 
        MSR       BASEPRI, A1           ; [DPU_V7M3_PIPE] |1948| 
        STR       A2, [SP, #12]         ; [DPU_V7M3_PIPE] |1948| 
	.dwpsn	file "C:/Tools/Thirdparty/FreeRTOSv202112.00/FreeRTOS/Source/tasks.c",line 1948,column 34,is_stmt,isa 1
	dsb
	isb

$C$DW$240	.dwtag  DW_TAG_lexical_block
	.dwattr $C$DW$240, DW_AT_low_pc(0x00)
	.dwattr $C$DW$240, DW_AT_high_pc(0x00)

$C$DW$241	.dwtag  DW_TAG_lexical_block
	.dwattr $C$DW$241, DW_AT_low_pc(0x00)
	.dwattr $C$DW$241, DW_AT_high_pc(0x00)
	.dwpsn	file "C:/Tools/Thirdparty/FreeRTOSv202112.00/FreeRTOS/Source/tasks.c",line 1950,column 13,is_stmt,isa 1
        LDR       A1, [SP, #8]          ; [DPU_V7M3_PIPE] |1950| 
$C$DW$242	.dwtag  DW_TAG_TI_branch
	.dwattr $C$DW$242, DW_AT_low_pc(0x00)
	.dwattr $C$DW$242, DW_AT_name("prvTaskIsTaskSuspended")
	.dwattr $C$DW$242, DW_AT_TI_call

        BL        prvTaskIsTaskSuspended ; [DPU_V7M3_PIPE] |1950| 
        ; CALL OCCURS {prvTaskIsTaskSuspended }  ; [] |1950| 
        CMP       A1, #0                ; [DPU_V7M3_PIPE] |1950| 
        BEQ       ||$C$L82||            ; [DPU_V7M3_PIPE] |1950| 
        ; BRANCHCC OCCURS {||$C$L82||}   ; [] |1950| 
;* --------------------------------------------------------------------------*

$C$DW$243	.dwtag  DW_TAG_lexical_block
	.dwattr $C$DW$243, DW_AT_low_pc(0x00)
	.dwattr $C$DW$243, DW_AT_high_pc(0x00)

$C$DW$244	.dwtag  DW_TAG_lexical_block
	.dwattr $C$DW$244, DW_AT_low_pc(0x00)
	.dwattr $C$DW$244, DW_AT_high_pc(0x00)
	.dwpsn	file "C:/Tools/Thirdparty/FreeRTOSv202112.00/FreeRTOS/Source/tasks.c",line 1955,column 17,is_stmt,isa 1
        LDR       A1, $C$CON25          ; [DPU_V7M3_PIPE] |1955| 
        LDR       A1, [A1, #0]          ; [DPU_V7M3_PIPE] |1955| 
        CMP       A1, #0                ; [DPU_V7M3_PIPE] |1955| 
        BNE       ||$C$L81||            ; [DPU_V7M3_PIPE] |1955| 
        ; BRANCHCC OCCURS {||$C$L81||}   ; [] |1955| 
;* --------------------------------------------------------------------------*

$C$DW$245	.dwtag  DW_TAG_lexical_block
	.dwattr $C$DW$245, DW_AT_low_pc(0x00)
	.dwattr $C$DW$245, DW_AT_high_pc(0x00)
	.dwpsn	file "C:/Tools/Thirdparty/FreeRTOSv202112.00/FreeRTOS/Source/tasks.c",line 1959,column 21,is_stmt,isa 1
        LDR       A1, $C$CON23          ; [DPU_V7M3_PIPE] |1959| 
        LDR       A2, [SP, #8]          ; [DPU_V7M3_PIPE] |1959| 
        LDR       A1, [A1, #0]          ; [DPU_V7M3_PIPE] |1959| 
        LDR       A2, [A2, #44]         ; [DPU_V7M3_PIPE] |1959| 
        LDR       A1, [A1, #44]         ; [DPU_V7M3_PIPE] |1959| 
        CMP       A1, A2                ; [DPU_V7M3_PIPE] |1959| 
        BHI       ||$C$L80||            ; [DPU_V7M3_PIPE] |1959| 
        ; BRANCHCC OCCURS {||$C$L80||}   ; [] |1959| 
;* --------------------------------------------------------------------------*
	.dwpsn	file "C:/Tools/Thirdparty/FreeRTOSv202112.00/FreeRTOS/Source/tasks.c",line 1961,column 25,is_stmt,isa 1
        MOVS      A1, #1                ; [DPU_V7M3_PIPE] |1961| 
        STR       A1, [SP, #4]          ; [DPU_V7M3_PIPE] |1961| 
	.dwpsn	file "C:/Tools/Thirdparty/FreeRTOSv202112.00/FreeRTOS/Source/tasks.c",line 1966,column 25,is_stmt,isa 1
        LDR       A2, $C$CON26          ; [DPU_V7M3_PIPE] |1966| 
        MOVS      A1, #1                ; [DPU_V7M3_PIPE] |1966| 
        STR       A1, [A2, #0]          ; [DPU_V7M3_PIPE] |1966| 
;* --------------------------------------------------------------------------*
||$C$L80||:    
	.dwpsn	file "C:/Tools/Thirdparty/FreeRTOSv202112.00/FreeRTOS/Source/tasks.c",line 1973,column 21,is_stmt,isa 1
        LDR       A1, [SP, #8]          ; [DPU_V7M3_PIPE] |1973| 
        ADDS      A1, A1, #4            ; [DPU_V7M3_PIPE] |1973| 
$C$DW$246	.dwtag  DW_TAG_TI_branch
	.dwattr $C$DW$246, DW_AT_low_pc(0x00)
	.dwattr $C$DW$246, DW_AT_name("uxListRemove")
	.dwattr $C$DW$246, DW_AT_TI_call

        BL        uxListRemove          ; [DPU_V7M3_PIPE] |1973| 
        ; CALL OCCURS {uxListRemove }    ; [] |1973| 
	.dwpsn	file "C:/Tools/Thirdparty/FreeRTOSv202112.00/FreeRTOS/Source/tasks.c",line 1974,column 21,is_stmt,isa 1
        LDR       A1, [SP, #8]          ; [DPU_V7M3_PIPE] |1974| 
        LDR       A2, $C$CON27          ; [DPU_V7M3_PIPE] |1974| 
        LDR       A4, [A1, #44]         ; [DPU_V7M3_PIPE] |1974| 
        LDR       A3, [A2, #0]          ; [DPU_V7M3_PIPE] |1974| 
        MOVS      A1, #1                ; [DPU_V7M3_PIPE] |1974| 
        LSLS      A1, A1, A4            ; [DPU_V7M3_PIPE] |1974| 
        ORRS      A1, A1, A3            ; [DPU_V7M3_PIPE] |1974| 
        STR       A1, [A2, #0]          ; [DPU_V7M3_PIPE] |1974| 

$C$DW$247	.dwtag  DW_TAG_lexical_block
	.dwattr $C$DW$247, DW_AT_low_pc(0x00)
	.dwattr $C$DW$247, DW_AT_high_pc(0x00)
$C$DW$248	.dwtag  DW_TAG_variable
	.dwattr $C$DW$248, DW_AT_name("pxIndex")
	.dwattr $C$DW$248, DW_AT_TI_symbol_name("pxIndex")
	.dwattr $C$DW$248, DW_AT_type(*$C$DW$T$124)
	.dwattr $C$DW$248, DW_AT_location[DW_OP_breg13 16]

        LDR       A1, [SP, #8]          ; [DPU_V7M3_PIPE] |1974| 
        LDR       A2, $C$CON28          ; [DPU_V7M3_PIPE] |1974| 
        LDR       A3, [A1, #44]         ; [DPU_V7M3_PIPE] |1974| 
        LSLS      A1, A3, #2            ; [DPU_V7M3_PIPE] |1974| 
        ADD       A1, A1, A3, LSL #4    ; [DPU_V7M3_PIPE] |1974| 
        LDR       A1, [A2, +A1]         ; [DPU_V7M3_PIPE] |1974| 
        LDR       A2, [SP, #8]          ; [DPU_V7M3_PIPE] |1974| 
        STR       A1, [SP, #16]         ; [DPU_V7M3_PIPE] |1974| 
        LDR       A1, [SP, #16]         ; [DPU_V7M3_PIPE] |1974| 
        STR       A1, [A2, #8]          ; [DPU_V7M3_PIPE] |1974| 
        LDR       A1, [SP, #16]         ; [DPU_V7M3_PIPE] |1974| 
        LDR       A2, [SP, #8]          ; [DPU_V7M3_PIPE] |1974| 
        LDR       A1, [A1, #8]          ; [DPU_V7M3_PIPE] |1974| 
        STR       A1, [A2, #12]         ; [DPU_V7M3_PIPE] |1974| 
        LDR       A1, [SP, #8]          ; [DPU_V7M3_PIPE] |1974| 
        LDR       A2, [SP, #16]         ; [DPU_V7M3_PIPE] |1974| 
        ADDS      A1, A1, #4            ; [DPU_V7M3_PIPE] |1974| 
        LDR       A2, [A2, #8]          ; [DPU_V7M3_PIPE] |1974| 
        LDR       A3, $C$CON29          ; [DPU_V7M3_PIPE] |1974| 
        STR       A1, [A2, #4]          ; [DPU_V7M3_PIPE] |1974| 
        LDR       A1, [SP, #8]          ; [DPU_V7M3_PIPE] |1974| 
        LDR       A2, [SP, #16]         ; [DPU_V7M3_PIPE] |1974| 
        ADDS      A1, A1, #4            ; [DPU_V7M3_PIPE] |1974| 
        STR       A1, [A2, #8]          ; [DPU_V7M3_PIPE] |1974| 
        LDR       A1, [SP, #8]          ; [DPU_V7M3_PIPE] |1974| 
        LDR       A2, [SP, #8]          ; [DPU_V7M3_PIPE] |1974| 
        LDR       A4, [A1, #44]         ; [DPU_V7M3_PIPE] |1974| 
        LSLS      A1, A4, #2            ; [DPU_V7M3_PIPE] |1974| 
        ADD       A1, A1, A4, LSL #4    ; [DPU_V7M3_PIPE] |1974| 
        ADDS      A1, A1, A3            ; [DPU_V7M3_PIPE] |1974| 
        STR       A1, [A2, #20]         ; [DPU_V7M3_PIPE] |1974| 
        LDR       A1, [SP, #8]          ; [DPU_V7M3_PIPE] |1974| 
        LDR       A3, $C$CON29          ; [DPU_V7M3_PIPE] |1974| 
        LDR       A2, [A1, #44]         ; [DPU_V7M3_PIPE] |1974| 
        LSLS      A1, A2, #2            ; [DPU_V7M3_PIPE] |1974| 
        ADD       A1, A1, A2, LSL #4    ; [DPU_V7M3_PIPE] |1974| 
        LDR       A2, [A1, +A3]         ; [DPU_V7M3_PIPE] |1974| 
        ADDS      A2, A2, #1            ; [DPU_V7M3_PIPE] |1974| 
        STR       A2, [A1, +A3]         ; [DPU_V7M3_PIPE] |1974| 
	.dwendtag $C$DW$247

	.dwendtag $C$DW$245

        B         ||$C$L82||            ; [DPU_V7M3_PIPE] 
        ; BRANCH OCCURS {||$C$L82||}     ; [] 
;* --------------------------------------------------------------------------*
||$C$L81||:    
	.dwpsn	file "C:/Tools/Thirdparty/FreeRTOSv202112.00/FreeRTOS/Source/tasks.c",line 1981,column 21,is_stmt,isa 1
        LDR       A2, [SP, #8]          ; [DPU_V7M3_PIPE] |1981| 
        LDR       A1, $C$CON24          ; [DPU_V7M3_PIPE] |1981| 
        ADDS      A2, A2, #24           ; [DPU_V7M3_PIPE] |1981| 
$C$DW$249	.dwtag  DW_TAG_TI_branch
	.dwattr $C$DW$249, DW_AT_low_pc(0x00)
	.dwattr $C$DW$249, DW_AT_name("vListInsertEnd")
	.dwattr $C$DW$249, DW_AT_TI_call

        BL        vListInsertEnd        ; [DPU_V7M3_PIPE] |1981| 
        ; CALL OCCURS {vListInsertEnd }  ; [] |1981| 
	.dwendtag $C$DW$244

	.dwendtag $C$DW$243

;* --------------------------------------------------------------------------*
||$C$L82||:    
	.dwendtag $C$DW$241

	.dwendtag $C$DW$240

	.dwpsn	file "C:/Tools/Thirdparty/FreeRTOSv202112.00/FreeRTOS/Source/tasks.c",line 1989,column 9,is_stmt,isa 1
        LDR       A1, [SP, #12]         ; [DPU_V7M3_PIPE] |1989| 
        MSR       BASEPRI, A1           ; [DPU_V7M3_PIPE] |1989| 
	.dwpsn	file "C:/Tools/Thirdparty/FreeRTOSv202112.00/FreeRTOS/Source/tasks.c",line 1991,column 9,is_stmt,isa 1
        LDR       A1, [SP, #4]          ; [DPU_V7M3_PIPE] |1991| 
	.dwpsn	file "C:/Tools/Thirdparty/FreeRTOSv202112.00/FreeRTOS/Source/tasks.c",line 1992,column 5,is_stmt,isa 1
        ADD       SP, SP, #20           ; [DPU_V7M3_PIPE] 
	.dwcfi	cfa_offset, 4
$C$DW$250	.dwtag  DW_TAG_TI_branch
	.dwattr $C$DW$250, DW_AT_low_pc(0x00)
	.dwattr $C$DW$250, DW_AT_TI_return

        POP       {PC}                  ; [DPU_V7M3_PIPE] 
	.dwcfi	cfa_offset, 0
        ; BRANCH OCCURS                  ; [] 
	.dwattr $C$DW$234, DW_AT_TI_end_file("C:/Tools/Thirdparty/FreeRTOSv202112.00/FreeRTOS/Source/tasks.c")
	.dwattr $C$DW$234, DW_AT_TI_end_line(0x7c8)
	.dwattr $C$DW$234, DW_AT_TI_end_column(0x05)
	.dwendentry
	.dwendtag $C$DW$234

;******************************************************************************
;* CONSTANT TABLE                                                             *
;******************************************************************************
	.sect	".text"
	.align	4
||$C$CON22||:	.bits	xSuspendedTaskList,32
	.sect	".text"
	.clink
	.thumbfunc vTaskStartScheduler
	.thumb
	.global	vTaskStartScheduler

$C$DW$251	.dwtag  DW_TAG_subprogram
	.dwattr $C$DW$251, DW_AT_name("vTaskStartScheduler")
	.dwattr $C$DW$251, DW_AT_low_pc(vTaskStartScheduler)
	.dwattr $C$DW$251, DW_AT_high_pc(0x00)
	.dwattr $C$DW$251, DW_AT_TI_symbol_name("vTaskStartScheduler")
	.dwattr $C$DW$251, DW_AT_external
	.dwattr $C$DW$251, DW_AT_TI_begin_file("C:/Tools/Thirdparty/FreeRTOSv202112.00/FreeRTOS/Source/tasks.c")
	.dwattr $C$DW$251, DW_AT_TI_begin_line(0x7cd)
	.dwattr $C$DW$251, DW_AT_TI_begin_column(0x06)
	.dwattr $C$DW$251, DW_AT_decl_file("C:/Tools/Thirdparty/FreeRTOSv202112.00/FreeRTOS/Source/tasks.c")
	.dwattr $C$DW$251, DW_AT_decl_line(0x7cd)
	.dwattr $C$DW$251, DW_AT_decl_column(0x06)
	.dwattr $C$DW$251, DW_AT_TI_max_frame_size(0x10)
	.dwpsn	file "C:/Tools/Thirdparty/FreeRTOSv202112.00/FreeRTOS/Source/tasks.c",line 1998,column 1,is_stmt,address vTaskStartScheduler,isa 1

	.dwfde $C$DW$CIE, vTaskStartScheduler

;*****************************************************************************
;* FUNCTION NAME: vTaskStartScheduler                                        *
;*                                                                           *
;*   Regs Modified     : A1,A2,A3,A4,V9,SP,LR,SR,D0,D0_hi,D1,D1_hi,D2,D2_hi, *
;*                           D3,D3_hi,D4,D4_hi,D5,D5_hi,D6,D6_hi,D7,D7_hi,   *
;*                           FPEXC,FPSCR                                     *
;*   Regs Used         : A1,A2,A3,A4,V9,SP,LR,SR,D0,D0_hi,D1,D1_hi,D2,D2_hi, *
;*                           D3,D3_hi,D4,D4_hi,D5,D5_hi,D6,D6_hi,D7,D7_hi,   *
;*                           FPEXC,FPSCR                                     *
;*   Local Frame Size  : 8 Args + 4 Auto + 4 Save = 16 byte                  *
;*****************************************************************************
vTaskStartScheduler:
;* --------------------------------------------------------------------------*
	.dwcfi	cfa_offset, 0
        PUSH      {A2, A3, A4, LR}      ; [DPU_V7M3_PIPE] 
	.dwcfi	cfa_offset, 16
	.dwcfi	save_reg_to_mem, 14, -4
	.dwcfi	save_reg_to_mem, 3, -8
	.dwcfi	save_reg_to_mem, 2, -12
	.dwcfi	save_reg_to_mem, 1, -16
$C$DW$252	.dwtag  DW_TAG_variable
	.dwattr $C$DW$252, DW_AT_name("xReturn")
	.dwattr $C$DW$252, DW_AT_TI_symbol_name("xReturn")
	.dwattr $C$DW$252, DW_AT_type(*$C$DW$T$98)
	.dwattr $C$DW$252, DW_AT_location[DW_OP_breg13 8]

	.dwpsn	file "C:/Tools/Thirdparty/FreeRTOSv202112.00/FreeRTOS/Source/tasks.c",line 2031,column 13,is_stmt,isa 1
        MOVS      A1, #0                ; [DPU_V7M3_PIPE] |2031| 
        STR       A1, [SP, #0]          ; [DPU_V7M3_PIPE] |2031| 
        LDR       A1, $C$CON30          ; [DPU_V7M3_PIPE] |2031| 
        STR       A1, [SP, #4]          ; [DPU_V7M3_PIPE] |2031| 
        LDR       A1, $C$CON31          ; [DPU_V7M3_PIPE] |2031| 
        ADR       A2, $C$SL1            ; [DPU_V7M3_PIPE] |2031| 
        MOV       A3, #1024             ; [DPU_V7M3_PIPE] |2031| 
        MOVS      A4, #0                ; [DPU_V7M3_PIPE] |2031| 
$C$DW$253	.dwtag  DW_TAG_TI_branch
	.dwattr $C$DW$253, DW_AT_low_pc(0x00)
	.dwattr $C$DW$253, DW_AT_name("xTaskCreate")
	.dwattr $C$DW$253, DW_AT_TI_call

        BL        xTaskCreate           ; [DPU_V7M3_PIPE] |2031| 
        ; CALL OCCURS {xTaskCreate }     ; [] |2031| 
        STR       A1, [SP, #8]          ; [DPU_V7M3_PIPE] |2031| 
	.dwpsn	file "C:/Tools/Thirdparty/FreeRTOSv202112.00/FreeRTOS/Source/tasks.c",line 2042,column 13,is_stmt,isa 1
        LDR       A1, [SP, #8]          ; [DPU_V7M3_PIPE] |2042| 
        CMP       A1, #1                ; [DPU_V7M3_PIPE] |2042| 
        BNE       ||$C$L83||            ; [DPU_V7M3_PIPE] |2042| 
        ; BRANCHCC OCCURS {||$C$L83||}   ; [] |2042| 
;* --------------------------------------------------------------------------*
	.dwpsn	file "C:/Tools/Thirdparty/FreeRTOSv202112.00/FreeRTOS/Source/tasks.c",line 2044,column 17,is_stmt,isa 1
$C$DW$254	.dwtag  DW_TAG_TI_branch
	.dwattr $C$DW$254, DW_AT_low_pc(0x00)
	.dwattr $C$DW$254, DW_AT_name("xTimerCreateTimerTask")
	.dwattr $C$DW$254, DW_AT_TI_call

        BL        xTimerCreateTimerTask ; [DPU_V7M3_PIPE] |2044| 
        ; CALL OCCURS {xTimerCreateTimerTask }  ; [] |2044| 
        STR       A1, [SP, #8]          ; [DPU_V7M3_PIPE] |2044| 
;* --------------------------------------------------------------------------*
||$C$L83||:    
	.dwpsn	file "C:/Tools/Thirdparty/FreeRTOSv202112.00/FreeRTOS/Source/tasks.c",line 2053,column 5,is_stmt,isa 1
        LDR       A1, [SP, #8]          ; [DPU_V7M3_PIPE] |2053| 
        CMP       A1, #1                ; [DPU_V7M3_PIPE] |2053| 
        BNE       ||$C$L84||            ; [DPU_V7M3_PIPE] |2053| 
        ; BRANCHCC OCCURS {||$C$L84||}   ; [] |2053| 
;* --------------------------------------------------------------------------*
	.dwpsn	file "C:/Tools/Thirdparty/FreeRTOSv202112.00/FreeRTOS/Source/tasks.c",line 2069,column 9,is_stmt,isa 1
        MOVS      A1, #160              ; [DPU_V7M3_PIPE] |2069| 
        MSR       BASEPRI, A1           ; [DPU_V7M3_PIPE] |2069| 
	dsb
	isb
	.dwpsn	file "C:/Tools/Thirdparty/FreeRTOSv202112.00/FreeRTOS/Source/tasks.c",line 2081,column 9,is_stmt,isa 1
        LDR       A2, $C$CON32          ; [DPU_V7M3_PIPE] |2081| 
        MOV       A1, #-1               ; [DPU_V7M3_PIPE] |2081| 
        STR       A1, [A2, #0]          ; [DPU_V7M3_PIPE] |2081| 
	.dwpsn	file "C:/Tools/Thirdparty/FreeRTOSv202112.00/FreeRTOS/Source/tasks.c",line 2082,column 9,is_stmt,isa 1
        LDR       A2, $C$CON20          ; [DPU_V7M3_PIPE] |2082| 
        MOVS      A1, #1                ; [DPU_V7M3_PIPE] |2082| 
        STR       A1, [A2, #0]          ; [DPU_V7M3_PIPE] |2082| 
	.dwpsn	file "C:/Tools/Thirdparty/FreeRTOSv202112.00/FreeRTOS/Source/tasks.c",line 2083,column 9,is_stmt,isa 1
        LDR       A2, $C$CON34          ; [DPU_V7M3_PIPE] |2083| 
        MOVS      A1, #0                ; [DPU_V7M3_PIPE] |2083| 
        STR       A1, [A2, #0]          ; [DPU_V7M3_PIPE] |2083| 
	.dwpsn	file "C:/Tools/Thirdparty/FreeRTOSv202112.00/FreeRTOS/Source/tasks.c",line 2097,column 9,is_stmt,isa 1
$C$DW$255	.dwtag  DW_TAG_TI_branch
	.dwattr $C$DW$255, DW_AT_low_pc(0x00)
	.dwattr $C$DW$255, DW_AT_name("xPortStartScheduler")
	.dwattr $C$DW$255, DW_AT_TI_call

        BL        xPortStartScheduler   ; [DPU_V7M3_PIPE] |2097| 
        ; CALL OCCURS {xPortStartScheduler }  ; [] |2097| 
;* --------------------------------------------------------------------------*
||$C$L84||:    
	.dwpsn	file "C:/Tools/Thirdparty/FreeRTOSv202112.00/FreeRTOS/Source/tasks.c",line 2117,column 5,is_stmt,isa 1
	.dwpsn	file "C:/Tools/Thirdparty/FreeRTOSv202112.00/FreeRTOS/Source/tasks.c",line 2121,column 5,is_stmt,isa 1
        LDR       A1, $C$CON33          ; [DPU_V7M3_PIPE] |2121| 
        LDR       A1, [A1, #0]          ; [DPU_V7M3_PIPE] |2121| 
	.dwpsn	file "C:/Tools/Thirdparty/FreeRTOSv202112.00/FreeRTOS/Source/tasks.c",line 2122,column 1,is_stmt,isa 1
$C$DW$256	.dwtag  DW_TAG_TI_branch
	.dwattr $C$DW$256, DW_AT_low_pc(0x00)
	.dwattr $C$DW$256, DW_AT_TI_return

        POP       {A2, A3, A4, PC}      ; [DPU_V7M3_PIPE] 
	.dwcfi	cfa_offset, 0
	.dwcfi	restore_reg, 3
	.dwcfi	restore_reg, 2
	.dwcfi	restore_reg, 1
        ; BRANCH OCCURS                  ; [] 
	.dwattr $C$DW$251, DW_AT_TI_end_file("C:/Tools/Thirdparty/FreeRTOSv202112.00/FreeRTOS/Source/tasks.c")
	.dwattr $C$DW$251, DW_AT_TI_end_line(0x84a)
	.dwattr $C$DW$251, DW_AT_TI_end_column(0x01)
	.dwendentry
	.dwendtag $C$DW$251

	.sect	".text"
	.clink
	.thumbfunc vTaskEndScheduler
	.thumb
	.global	vTaskEndScheduler

$C$DW$257	.dwtag  DW_TAG_subprogram
	.dwattr $C$DW$257, DW_AT_name("vTaskEndScheduler")
	.dwattr $C$DW$257, DW_AT_low_pc(vTaskEndScheduler)
	.dwattr $C$DW$257, DW_AT_high_pc(0x00)
	.dwattr $C$DW$257, DW_AT_TI_symbol_name("vTaskEndScheduler")
	.dwattr $C$DW$257, DW_AT_external
	.dwattr $C$DW$257, DW_AT_TI_begin_file("C:/Tools/Thirdparty/FreeRTOSv202112.00/FreeRTOS/Source/tasks.c")
	.dwattr $C$DW$257, DW_AT_TI_begin_line(0x84d)
	.dwattr $C$DW$257, DW_AT_TI_begin_column(0x06)
	.dwattr $C$DW$257, DW_AT_decl_file("C:/Tools/Thirdparty/FreeRTOSv202112.00/FreeRTOS/Source/tasks.c")
	.dwattr $C$DW$257, DW_AT_decl_line(0x84d)
	.dwattr $C$DW$257, DW_AT_decl_column(0x06)
	.dwattr $C$DW$257, DW_AT_TI_max_frame_size(0x08)
	.dwpsn	file "C:/Tools/Thirdparty/FreeRTOSv202112.00/FreeRTOS/Source/tasks.c",line 2126,column 1,is_stmt,address vTaskEndScheduler,isa 1

	.dwfde $C$DW$CIE, vTaskEndScheduler

;*****************************************************************************
;* FUNCTION NAME: vTaskEndScheduler                                          *
;*                                                                           *
;*   Regs Modified     : A1,A2,A3,A4,V9,SP,LR,SR,D0,D0_hi,D1,D1_hi,D2,D2_hi, *
;*                           D3,D3_hi,D4,D4_hi,D5,D5_hi,D6,D6_hi,D7,D7_hi,   *
;*                           FPEXC,FPSCR                                     *
;*   Regs Used         : A1,A2,A3,A4,V9,SP,LR,SR,D0,D0_hi,D1,D1_hi,D2,D2_hi, *
;*                           D3,D3_hi,D4,D4_hi,D5,D5_hi,D6,D6_hi,D7,D7_hi,   *
;*                           FPEXC,FPSCR                                     *
;*   Local Frame Size  : 0 Args + 0 Auto + 4 Save = 4 byte                   *
;*****************************************************************************
vTaskEndScheduler:
;* --------------------------------------------------------------------------*
	.dwcfi	cfa_offset, 0
        PUSH      {A4, LR}              ; [DPU_V7M3_PIPE] 
	.dwcfi	cfa_offset, 8
	.dwcfi	save_reg_to_mem, 14, -4
	.dwcfi	save_reg_to_mem, 3, -8
	.dwpsn	file "C:/Tools/Thirdparty/FreeRTOSv202112.00/FreeRTOS/Source/tasks.c",line 2130,column 5,is_stmt,isa 1
        MOVS      A1, #160              ; [DPU_V7M3_PIPE] |2130| 
        MSR       BASEPRI, A1           ; [DPU_V7M3_PIPE] |2130| 
	dsb
	isb
	.dwpsn	file "C:/Tools/Thirdparty/FreeRTOSv202112.00/FreeRTOS/Source/tasks.c",line 2131,column 5,is_stmt,isa 1
        LDR       A2, $C$CON35          ; [DPU_V7M3_PIPE] |2131| 
        MOVS      A1, #0                ; [DPU_V7M3_PIPE] |2131| 
        STR       A1, [A2, #0]          ; [DPU_V7M3_PIPE] |2131| 
	.dwpsn	file "C:/Tools/Thirdparty/FreeRTOSv202112.00/FreeRTOS/Source/tasks.c",line 2132,column 5,is_stmt,isa 1
$C$DW$258	.dwtag  DW_TAG_TI_branch
	.dwattr $C$DW$258, DW_AT_low_pc(0x00)
	.dwattr $C$DW$258, DW_AT_name("vPortEndScheduler")
	.dwattr $C$DW$258, DW_AT_TI_call

        BL        vPortEndScheduler     ; [DPU_V7M3_PIPE] |2132| 
        ; CALL OCCURS {vPortEndScheduler }  ; [] |2132| 
	.dwpsn	file "C:/Tools/Thirdparty/FreeRTOSv202112.00/FreeRTOS/Source/tasks.c",line 2133,column 1,is_stmt,isa 1
$C$DW$259	.dwtag  DW_TAG_TI_branch
	.dwattr $C$DW$259, DW_AT_low_pc(0x00)
	.dwattr $C$DW$259, DW_AT_TI_return

        POP       {A4, PC}              ; [DPU_V7M3_PIPE] 
	.dwcfi	cfa_offset, 0
	.dwcfi	restore_reg, 3
        ; BRANCH OCCURS                  ; [] 
	.dwattr $C$DW$257, DW_AT_TI_end_file("C:/Tools/Thirdparty/FreeRTOSv202112.00/FreeRTOS/Source/tasks.c")
	.dwattr $C$DW$257, DW_AT_TI_end_line(0x855)
	.dwattr $C$DW$257, DW_AT_TI_end_column(0x01)
	.dwendentry
	.dwendtag $C$DW$257

;******************************************************************************
;* CONSTANT TABLE                                                             *
;******************************************************************************
	.sect	".text"
	.align	4
||$C$CON20||:	.bits	xSchedulerRunning,32
	.sect	".text"
	.clink
	.thumbfunc vTaskSuspendAll
	.thumb
	.global	vTaskSuspendAll

$C$DW$260	.dwtag  DW_TAG_subprogram
	.dwattr $C$DW$260, DW_AT_name("vTaskSuspendAll")
	.dwattr $C$DW$260, DW_AT_low_pc(vTaskSuspendAll)
	.dwattr $C$DW$260, DW_AT_high_pc(0x00)
	.dwattr $C$DW$260, DW_AT_TI_symbol_name("vTaskSuspendAll")
	.dwattr $C$DW$260, DW_AT_external
	.dwattr $C$DW$260, DW_AT_TI_begin_file("C:/Tools/Thirdparty/FreeRTOSv202112.00/FreeRTOS/Source/tasks.c")
	.dwattr $C$DW$260, DW_AT_TI_begin_line(0x858)
	.dwattr $C$DW$260, DW_AT_TI_begin_column(0x06)
	.dwattr $C$DW$260, DW_AT_decl_file("C:/Tools/Thirdparty/FreeRTOSv202112.00/FreeRTOS/Source/tasks.c")
	.dwattr $C$DW$260, DW_AT_decl_line(0x858)
	.dwattr $C$DW$260, DW_AT_decl_column(0x06)
	.dwattr $C$DW$260, DW_AT_TI_max_frame_size(0x00)
	.dwpsn	file "C:/Tools/Thirdparty/FreeRTOSv202112.00/FreeRTOS/Source/tasks.c",line 2137,column 1,is_stmt,address vTaskSuspendAll,isa 1

	.dwfde $C$DW$CIE, vTaskSuspendAll

;*****************************************************************************
;* FUNCTION NAME: vTaskSuspendAll                                            *
;*                                                                           *
;*   Regs Modified     : A1,A2,SR                                            *
;*   Regs Used         : A1,A2,LR,SR                                         *
;*   Local Frame Size  : 0 Args + 0 Auto + 0 Save = 0 byte                   *
;*****************************************************************************
vTaskSuspendAll:
;* --------------------------------------------------------------------------*
	.dwcfi	cfa_offset, 0
	.dwpsn	file "C:/Tools/Thirdparty/FreeRTOSv202112.00/FreeRTOS/Source/tasks.c",line 2149,column 5,is_stmt,isa 1
        LDR       A2, $C$CON25          ; [DPU_V7M3_PIPE] |2149| 
        LDR       A1, [A2, #0]          ; [DPU_V7M3_PIPE] |2149| 
        ADDS      A1, A1, #1            ; [DPU_V7M3_PIPE] |2149| 
        STR       A1, [A2, #0]          ; [DPU_V7M3_PIPE] |2149| 
	.dwpsn	file "C:/Tools/Thirdparty/FreeRTOSv202112.00/FreeRTOS/Source/tasks.c",line 2154,column 1,is_stmt,isa 1
$C$DW$261	.dwtag  DW_TAG_TI_branch
	.dwattr $C$DW$261, DW_AT_low_pc(0x00)
	.dwattr $C$DW$261, DW_AT_TI_return

        BX        LR                    ; [DPU_V7M3_PIPE] 
        ; BRANCH OCCURS                  ; [] 
	.dwattr $C$DW$260, DW_AT_TI_end_file("C:/Tools/Thirdparty/FreeRTOSv202112.00/FreeRTOS/Source/tasks.c")
	.dwattr $C$DW$260, DW_AT_TI_end_line(0x86a)
	.dwattr $C$DW$260, DW_AT_TI_end_column(0x01)
	.dwendentry
	.dwendtag $C$DW$260

;******************************************************************************
;* CONSTANT TABLE                                                             *
;******************************************************************************
	.sect	".text"
	.align	4
||$C$CON21||:	.bits	uxCurrentNumberOfTasks,32
	.align	4
||$C$CON23||:	.bits	pxCurrentTCB,32
	.align	4
||$C$CON24||:	.bits	xPendingReadyList,32
	.sect	".text"
	.clink
	.thumbfunc xTaskResumeAll
	.thumb
	.global	xTaskResumeAll

$C$DW$262	.dwtag  DW_TAG_subprogram
	.dwattr $C$DW$262, DW_AT_name("xTaskResumeAll")
	.dwattr $C$DW$262, DW_AT_low_pc(xTaskResumeAll)
	.dwattr $C$DW$262, DW_AT_high_pc(0x00)
	.dwattr $C$DW$262, DW_AT_TI_symbol_name("xTaskResumeAll")
	.dwattr $C$DW$262, DW_AT_external
	.dwattr $C$DW$262, DW_AT_type(*$C$DW$T$98)
	.dwattr $C$DW$262, DW_AT_TI_begin_file("C:/Tools/Thirdparty/FreeRTOSv202112.00/FreeRTOS/Source/tasks.c")
	.dwattr $C$DW$262, DW_AT_TI_begin_line(0x8ac)
	.dwattr $C$DW$262, DW_AT_TI_begin_column(0x0c)
	.dwattr $C$DW$262, DW_AT_decl_file("C:/Tools/Thirdparty/FreeRTOSv202112.00/FreeRTOS/Source/tasks.c")
	.dwattr $C$DW$262, DW_AT_decl_line(0x8ac)
	.dwattr $C$DW$262, DW_AT_decl_column(0x0c)
	.dwattr $C$DW$262, DW_AT_TI_max_frame_size(0x10)
	.dwpsn	file "C:/Tools/Thirdparty/FreeRTOSv202112.00/FreeRTOS/Source/tasks.c",line 2221,column 1,is_stmt,address xTaskResumeAll,isa 1

	.dwfde $C$DW$CIE, xTaskResumeAll

;*****************************************************************************
;* FUNCTION NAME: xTaskResumeAll                                             *
;*                                                                           *
;*   Regs Modified     : A1,A2,A3,A4,V9,SP,LR,SR,D0,D0_hi,D1,D1_hi,D2,D2_hi, *
;*                           D3,D3_hi,D4,D4_hi,D5,D5_hi,D6,D6_hi,D7,D7_hi,   *
;*                           FPEXC,FPSCR                                     *
;*   Regs Used         : A1,A2,A3,A4,V9,SP,LR,SR,D0,D0_hi,D1,D1_hi,D2,D2_hi, *
;*                           D3,D3_hi,D4,D4_hi,D5,D5_hi,D6,D6_hi,D7,D7_hi,   *
;*                           FPEXC,FPSCR                                     *
;*   Local Frame Size  : 0 Args + 12 Auto + 4 Save = 16 byte                 *
;*****************************************************************************
xTaskResumeAll:
;* --------------------------------------------------------------------------*
	.dwcfi	cfa_offset, 0
        PUSH      {A2, A3, A4, LR}      ; [DPU_V7M3_PIPE] 
	.dwcfi	cfa_offset, 16
	.dwcfi	save_reg_to_mem, 14, -4
	.dwcfi	save_reg_to_mem, 3, -8
	.dwcfi	save_reg_to_mem, 2, -12
	.dwcfi	save_reg_to_mem, 1, -16
$C$DW$263	.dwtag  DW_TAG_variable
	.dwattr $C$DW$263, DW_AT_name("pxTCB")
	.dwattr $C$DW$263, DW_AT_TI_symbol_name("pxTCB")
	.dwattr $C$DW$263, DW_AT_type(*$C$DW$T$135)
	.dwattr $C$DW$263, DW_AT_location[DW_OP_breg13 0]

$C$DW$264	.dwtag  DW_TAG_variable
	.dwattr $C$DW$264, DW_AT_name("xAlreadyYielded")
	.dwattr $C$DW$264, DW_AT_TI_symbol_name("xAlreadyYielded")
	.dwattr $C$DW$264, DW_AT_type(*$C$DW$T$98)
	.dwattr $C$DW$264, DW_AT_location[DW_OP_breg13 4]

	.dwpsn	file "C:/Tools/Thirdparty/FreeRTOSv202112.00/FreeRTOS/Source/tasks.c",line 2222,column 19,is_stmt,isa 1
        MOVS      A1, #0                ; [DPU_V7M3_PIPE] |2222| 
        STR       A1, [SP, #0]          ; [DPU_V7M3_PIPE] |2222| 
	.dwpsn	file "C:/Tools/Thirdparty/FreeRTOSv202112.00/FreeRTOS/Source/tasks.c",line 2223,column 32,is_stmt,isa 1
        MOVS      A1, #0                ; [DPU_V7M3_PIPE] |2223| 
        STR       A1, [SP, #4]          ; [DPU_V7M3_PIPE] |2223| 
	.dwpsn	file "C:/Tools/Thirdparty/FreeRTOSv202112.00/FreeRTOS/Source/tasks.c",line 2234,column 5,is_stmt,isa 1
$C$DW$265	.dwtag  DW_TAG_TI_branch
	.dwattr $C$DW$265, DW_AT_low_pc(0x00)
	.dwattr $C$DW$265, DW_AT_name("vPortEnterCritical")
	.dwattr $C$DW$265, DW_AT_TI_call

        BL        vPortEnterCritical    ; [DPU_V7M3_PIPE] |2234| 
        ; CALL OCCURS {vPortEnterCritical }  ; [] |2234| 

$C$DW$266	.dwtag  DW_TAG_lexical_block
	.dwattr $C$DW$266, DW_AT_low_pc(0x00)
	.dwattr $C$DW$266, DW_AT_high_pc(0x00)
	.dwpsn	file "C:/Tools/Thirdparty/FreeRTOSv202112.00/FreeRTOS/Source/tasks.c",line 2236,column 9,is_stmt,isa 1
        LDR       A2, $C$CON25          ; [DPU_V7M3_PIPE] |2236| 
        LDR       A1, [A2, #0]          ; [DPU_V7M3_PIPE] |2236| 
        SUBS      A1, A1, #1            ; [DPU_V7M3_PIPE] |2236| 
        STR       A1, [A2, #0]          ; [DPU_V7M3_PIPE] |2236| 

$C$DW$267	.dwtag  DW_TAG_lexical_block
	.dwattr $C$DW$267, DW_AT_low_pc(0x00)
	.dwattr $C$DW$267, DW_AT_high_pc(0x00)
	.dwpsn	file "C:/Tools/Thirdparty/FreeRTOSv202112.00/FreeRTOS/Source/tasks.c",line 2238,column 9,is_stmt,isa 1
        LDR       A1, $C$CON25          ; [DPU_V7M3_PIPE] |2238| 
        LDR       A1, [A1, #0]          ; [DPU_V7M3_PIPE] |2238| 
        CMP       A1, #0                ; [DPU_V7M3_PIPE] |2238| 
        BNE       ||$C$L98||            ; [DPU_V7M3_PIPE] |2238| 
        ; BRANCHCC OCCURS {||$C$L98||}   ; [] |2238| 
;* --------------------------------------------------------------------------*

$C$DW$268	.dwtag  DW_TAG_lexical_block
	.dwattr $C$DW$268, DW_AT_low_pc(0x00)
	.dwattr $C$DW$268, DW_AT_high_pc(0x00)

$C$DW$269	.dwtag  DW_TAG_lexical_block
	.dwattr $C$DW$269, DW_AT_low_pc(0x00)
	.dwattr $C$DW$269, DW_AT_high_pc(0x00)
	.dwpsn	file "C:/Tools/Thirdparty/FreeRTOSv202112.00/FreeRTOS/Source/tasks.c",line 2240,column 13,is_stmt,isa 1
        LDR       A1, $C$CON38          ; [DPU_V7M3_PIPE] |2240| 
        LDR       A1, [A1, #0]          ; [DPU_V7M3_PIPE] |2240| 
        CMP       A1, #0                ; [DPU_V7M3_PIPE] |2240| 
        BEQ       ||$C$L97||            ; [DPU_V7M3_PIPE] |2240| 
        ; BRANCHCC OCCURS {||$C$L97||}   ; [] |2240| 
;* --------------------------------------------------------------------------*

$C$DW$270	.dwtag  DW_TAG_lexical_block
	.dwattr $C$DW$270, DW_AT_low_pc(0x00)
	.dwattr $C$DW$270, DW_AT_high_pc(0x00)

$C$DW$271	.dwtag  DW_TAG_lexical_block
	.dwattr $C$DW$271, DW_AT_low_pc(0x00)
	.dwattr $C$DW$271, DW_AT_high_pc(0x00)
	.dwpsn	file "C:/Tools/Thirdparty/FreeRTOSv202112.00/FreeRTOS/Source/tasks.c",line 2244,column 17,is_stmt,isa 1
        B         ||$C$L89||            ; [DPU_V7M3_PIPE] |2244| 
        ; BRANCH OCCURS {||$C$L89||}     ; [] |2244| 
;* --------------------------------------------------------------------------*
||$C$L85||:    

$C$DW$272	.dwtag  DW_TAG_lexical_block
	.dwattr $C$DW$272, DW_AT_low_pc(0x00)
	.dwattr $C$DW$272, DW_AT_high_pc(0x00)
	.dwpsn	file "C:/Tools/Thirdparty/FreeRTOSv202112.00/FreeRTOS/Source/tasks.c",line 2246,column 21,is_stmt,isa 1
        LDR       A1, $C$CON36          ; [DPU_V7M3_PIPE] |2246| 
        LDR       A1, [A1, #0]          ; [DPU_V7M3_PIPE] |2246| 
        LDR       A1, [A1, #12]         ; [DPU_V7M3_PIPE] |2246| 
        STR       A1, [SP, #0]          ; [DPU_V7M3_PIPE] |2246| 

$C$DW$273	.dwtag  DW_TAG_lexical_block
	.dwattr $C$DW$273, DW_AT_low_pc(0x00)
	.dwattr $C$DW$273, DW_AT_high_pc(0x00)
$C$DW$274	.dwtag  DW_TAG_variable
	.dwattr $C$DW$274, DW_AT_name("pxList")
	.dwattr $C$DW$274, DW_AT_TI_symbol_name("pxList")
	.dwattr $C$DW$274, DW_AT_type(*$C$DW$T$121)
	.dwattr $C$DW$274, DW_AT_location[DW_OP_breg13 8]

	.dwpsn	file "C:/Tools/Thirdparty/FreeRTOSv202112.00/FreeRTOS/Source/tasks.c",line 2247,column 21,is_stmt,isa 1
        LDR       A1, [SP, #0]          ; [DPU_V7M3_PIPE] |2247| 
        LDR       A2, [SP, #0]          ; [DPU_V7M3_PIPE] |2247| 
        LDR       A3, [A1, #40]         ; [DPU_V7M3_PIPE] |2247| 
        LDR       A1, [SP, #0]          ; [DPU_V7M3_PIPE] |2247| 
        STR       A3, [SP, #8]          ; [DPU_V7M3_PIPE] |2247| 
        LDR       A1, [A1, #32]         ; [DPU_V7M3_PIPE] |2247| 
        LDR       A2, [A2, #28]         ; [DPU_V7M3_PIPE] |2247| 
        STR       A1, [A2, #8]          ; [DPU_V7M3_PIPE] |2247| 
        LDR       A1, [SP, #0]          ; [DPU_V7M3_PIPE] |2247| 
        LDR       A2, [SP, #0]          ; [DPU_V7M3_PIPE] |2247| 
        LDR       A1, [A1, #28]         ; [DPU_V7M3_PIPE] |2247| 
        LDR       A2, [A2, #32]         ; [DPU_V7M3_PIPE] |2247| 
        STR       A1, [A2, #4]          ; [DPU_V7M3_PIPE] |2247| 
        LDR       A2, [SP, #8]          ; [DPU_V7M3_PIPE] |2247| 
        LDR       A1, [SP, #0]          ; [DPU_V7M3_PIPE] |2247| 
        LDR       A2, [A2, #4]          ; [DPU_V7M3_PIPE] |2247| 
        ADDS      A1, A1, #24           ; [DPU_V7M3_PIPE] |2247| 
        CMP       A1, A2                ; [DPU_V7M3_PIPE] |2247| 
        BNE       ||$C$L86||            ; [DPU_V7M3_PIPE] |2247| 
        ; BRANCHCC OCCURS {||$C$L86||}   ; [] |2247| 
;* --------------------------------------------------------------------------*
        LDR       A1, [SP, #0]          ; [DPU_V7M3_PIPE] |2247| 
        LDR       A2, [SP, #8]          ; [DPU_V7M3_PIPE] |2247| 
        LDR       A1, [A1, #32]         ; [DPU_V7M3_PIPE] |2247| 
        STR       A1, [A2, #4]          ; [DPU_V7M3_PIPE] |2247| 
;* --------------------------------------------------------------------------*
||$C$L86||:    
        LDR       A1, [SP, #0]          ; [DPU_V7M3_PIPE] |2247| 
        MOVS      A2, #0                ; [DPU_V7M3_PIPE] |2247| 
        STR       A2, [A1, #40]         ; [DPU_V7M3_PIPE] |2247| 
        LDR       A2, [SP, #8]          ; [DPU_V7M3_PIPE] |2247| 
        LDR       A1, [A2, #0]          ; [DPU_V7M3_PIPE] |2247| 
        SUBS      A1, A1, #1            ; [DPU_V7M3_PIPE] |2247| 
        STR       A1, [A2, #0]          ; [DPU_V7M3_PIPE] |2247| 
	.dwendtag $C$DW$273


$C$DW$275	.dwtag  DW_TAG_lexical_block
	.dwattr $C$DW$275, DW_AT_low_pc(0x00)
	.dwattr $C$DW$275, DW_AT_high_pc(0x00)
$C$DW$276	.dwtag  DW_TAG_variable
	.dwattr $C$DW$276, DW_AT_name("pxList")
	.dwattr $C$DW$276, DW_AT_TI_symbol_name("pxList")
	.dwattr $C$DW$276, DW_AT_type(*$C$DW$T$121)
	.dwattr $C$DW$276, DW_AT_location[DW_OP_breg13 8]

	.dwpsn	file "C:/Tools/Thirdparty/FreeRTOSv202112.00/FreeRTOS/Source/tasks.c",line 2249,column 21,is_stmt,isa 1
        LDR       A1, [SP, #0]          ; [DPU_V7M3_PIPE] |2249| 
        LDR       A2, [SP, #0]          ; [DPU_V7M3_PIPE] |2249| 
        LDR       A3, [A1, #20]         ; [DPU_V7M3_PIPE] |2249| 
        LDR       A1, [SP, #0]          ; [DPU_V7M3_PIPE] |2249| 
        STR       A3, [SP, #8]          ; [DPU_V7M3_PIPE] |2249| 
        LDR       A1, [A1, #12]         ; [DPU_V7M3_PIPE] |2249| 
        LDR       A2, [A2, #8]          ; [DPU_V7M3_PIPE] |2249| 
        STR       A1, [A2, #8]          ; [DPU_V7M3_PIPE] |2249| 
        LDR       A1, [SP, #0]          ; [DPU_V7M3_PIPE] |2249| 
        LDR       A2, [SP, #0]          ; [DPU_V7M3_PIPE] |2249| 
        LDR       A1, [A1, #8]          ; [DPU_V7M3_PIPE] |2249| 
        LDR       A2, [A2, #12]         ; [DPU_V7M3_PIPE] |2249| 
        STR       A1, [A2, #4]          ; [DPU_V7M3_PIPE] |2249| 
        LDR       A2, [SP, #8]          ; [DPU_V7M3_PIPE] |2249| 
        LDR       A1, [SP, #0]          ; [DPU_V7M3_PIPE] |2249| 
        LDR       A2, [A2, #4]          ; [DPU_V7M3_PIPE] |2249| 
        ADDS      A1, A1, #4            ; [DPU_V7M3_PIPE] |2249| 
        CMP       A1, A2                ; [DPU_V7M3_PIPE] |2249| 
        BNE       ||$C$L87||            ; [DPU_V7M3_PIPE] |2249| 
        ; BRANCHCC OCCURS {||$C$L87||}   ; [] |2249| 
;* --------------------------------------------------------------------------*
        LDR       A1, [SP, #0]          ; [DPU_V7M3_PIPE] |2249| 
        LDR       A2, [SP, #8]          ; [DPU_V7M3_PIPE] |2249| 
        LDR       A1, [A1, #12]         ; [DPU_V7M3_PIPE] |2249| 
        STR       A1, [A2, #4]          ; [DPU_V7M3_PIPE] |2249| 
;* --------------------------------------------------------------------------*
||$C$L87||:    
        LDR       A1, [SP, #0]          ; [DPU_V7M3_PIPE] |2249| 
        MOVS      A2, #0                ; [DPU_V7M3_PIPE] |2249| 
        STR       A2, [A1, #20]         ; [DPU_V7M3_PIPE] |2249| 
        LDR       A2, [SP, #8]          ; [DPU_V7M3_PIPE] |2249| 
        LDR       A1, [A2, #0]          ; [DPU_V7M3_PIPE] |2249| 
        SUBS      A1, A1, #1            ; [DPU_V7M3_PIPE] |2249| 
        STR       A1, [A2, #0]          ; [DPU_V7M3_PIPE] |2249| 
	.dwendtag $C$DW$275

	.dwpsn	file "C:/Tools/Thirdparty/FreeRTOSv202112.00/FreeRTOS/Source/tasks.c",line 2250,column 21,is_stmt,isa 1
        LDR       A1, [SP, #0]          ; [DPU_V7M3_PIPE] |2250| 
        LDR       A2, $C$CON27          ; [DPU_V7M3_PIPE] |2250| 
        LDR       A4, [A1, #44]         ; [DPU_V7M3_PIPE] |2250| 
        LDR       A3, [A2, #0]          ; [DPU_V7M3_PIPE] |2250| 
        MOVS      A1, #1                ; [DPU_V7M3_PIPE] |2250| 
        LSLS      A1, A1, A4            ; [DPU_V7M3_PIPE] |2250| 
        ORRS      A1, A1, A3            ; [DPU_V7M3_PIPE] |2250| 
        STR       A1, [A2, #0]          ; [DPU_V7M3_PIPE] |2250| 

$C$DW$277	.dwtag  DW_TAG_lexical_block
	.dwattr $C$DW$277, DW_AT_low_pc(0x00)
	.dwattr $C$DW$277, DW_AT_high_pc(0x00)
$C$DW$278	.dwtag  DW_TAG_variable
	.dwattr $C$DW$278, DW_AT_name("pxIndex")
	.dwattr $C$DW$278, DW_AT_TI_symbol_name("pxIndex")
	.dwattr $C$DW$278, DW_AT_type(*$C$DW$T$124)
	.dwattr $C$DW$278, DW_AT_location[DW_OP_breg13 8]

        LDR       A1, [SP, #0]          ; [DPU_V7M3_PIPE] |2250| 
        LDR       A2, $C$CON28          ; [DPU_V7M3_PIPE] |2250| 
        LDR       A3, [A1, #44]         ; [DPU_V7M3_PIPE] |2250| 
        LSLS      A1, A3, #2            ; [DPU_V7M3_PIPE] |2250| 
        ADD       A1, A1, A3, LSL #4    ; [DPU_V7M3_PIPE] |2250| 
        LDR       A1, [A2, +A1]         ; [DPU_V7M3_PIPE] |2250| 
        LDR       A2, [SP, #0]          ; [DPU_V7M3_PIPE] |2250| 
        STR       A1, [SP, #8]          ; [DPU_V7M3_PIPE] |2250| 
        LDR       A1, [SP, #8]          ; [DPU_V7M3_PIPE] |2250| 
        STR       A1, [A2, #8]          ; [DPU_V7M3_PIPE] |2250| 
        LDR       A1, [SP, #8]          ; [DPU_V7M3_PIPE] |2250| 
        LDR       A2, [SP, #0]          ; [DPU_V7M3_PIPE] |2250| 
        LDR       A1, [A1, #8]          ; [DPU_V7M3_PIPE] |2250| 
        STR       A1, [A2, #12]         ; [DPU_V7M3_PIPE] |2250| 
        LDR       A1, [SP, #0]          ; [DPU_V7M3_PIPE] |2250| 
        LDR       A2, [SP, #8]          ; [DPU_V7M3_PIPE] |2250| 
        ADDS      A1, A1, #4            ; [DPU_V7M3_PIPE] |2250| 
        LDR       A2, [A2, #8]          ; [DPU_V7M3_PIPE] |2250| 
        LDR       A3, $C$CON29          ; [DPU_V7M3_PIPE] |2250| 
        STR       A1, [A2, #4]          ; [DPU_V7M3_PIPE] |2250| 
        LDR       A1, [SP, #0]          ; [DPU_V7M3_PIPE] |2250| 
        LDR       A2, [SP, #8]          ; [DPU_V7M3_PIPE] |2250| 
        ADDS      A1, A1, #4            ; [DPU_V7M3_PIPE] |2250| 
        STR       A1, [A2, #8]          ; [DPU_V7M3_PIPE] |2250| 
        LDR       A1, [SP, #0]          ; [DPU_V7M3_PIPE] |2250| 
        LDR       A2, [SP, #0]          ; [DPU_V7M3_PIPE] |2250| 
        LDR       A4, [A1, #44]         ; [DPU_V7M3_PIPE] |2250| 
        LSLS      A1, A4, #2            ; [DPU_V7M3_PIPE] |2250| 
        ADD       A1, A1, A4, LSL #4    ; [DPU_V7M3_PIPE] |2250| 
        ADDS      A1, A1, A3            ; [DPU_V7M3_PIPE] |2250| 
        STR       A1, [A2, #20]         ; [DPU_V7M3_PIPE] |2250| 
        LDR       A1, [SP, #0]          ; [DPU_V7M3_PIPE] |2250| 
        LDR       A3, $C$CON29          ; [DPU_V7M3_PIPE] |2250| 
        LDR       A2, [A1, #44]         ; [DPU_V7M3_PIPE] |2250| 
        LSLS      A1, A2, #2            ; [DPU_V7M3_PIPE] |2250| 
        ADD       A1, A1, A2, LSL #4    ; [DPU_V7M3_PIPE] |2250| 
        LDR       A2, [A1, +A3]         ; [DPU_V7M3_PIPE] |2250| 
        ADDS      A2, A2, #1            ; [DPU_V7M3_PIPE] |2250| 
        STR       A2, [A1, +A3]         ; [DPU_V7M3_PIPE] |2250| 
	.dwendtag $C$DW$277

	.dwpsn	file "C:/Tools/Thirdparty/FreeRTOSv202112.00/FreeRTOS/Source/tasks.c",line 2254,column 21,is_stmt,isa 1
        LDR       A1, $C$CON39          ; [DPU_V7M3_PIPE] |2254| 
        LDR       A2, [SP, #0]          ; [DPU_V7M3_PIPE] |2254| 
        LDR       A1, [A1, #0]          ; [DPU_V7M3_PIPE] |2254| 
        LDR       A2, [A2, #44]         ; [DPU_V7M3_PIPE] |2254| 
        LDR       A1, [A1, #44]         ; [DPU_V7M3_PIPE] |2254| 
        CMP       A1, A2                ; [DPU_V7M3_PIPE] |2254| 
        BHI       ||$C$L88||            ; [DPU_V7M3_PIPE] |2254| 
        ; BRANCHCC OCCURS {||$C$L88||}   ; [] |2254| 
;* --------------------------------------------------------------------------*
	.dwpsn	file "C:/Tools/Thirdparty/FreeRTOSv202112.00/FreeRTOS/Source/tasks.c",line 2256,column 25,is_stmt,isa 1
        LDR       A2, $C$CON26          ; [DPU_V7M3_PIPE] |2256| 
        MOVS      A1, #1                ; [DPU_V7M3_PIPE] |2256| 
        STR       A1, [A2, #0]          ; [DPU_V7M3_PIPE] |2256| 
;* --------------------------------------------------------------------------*
||$C$L88||:    
	.dwendtag $C$DW$272

;* --------------------------------------------------------------------------*
;*   BEGIN LOOP ||$C$L89||
;* --------------------------------------------------------------------------*
||$C$L89||:    
	.dwpsn	file "C:/Tools/Thirdparty/FreeRTOSv202112.00/FreeRTOS/Source/tasks.c",line 2244,column 24,is_stmt,isa 1
        LDR       A1, $C$CON40          ; [DPU_V7M3_PIPE] |2244| 
        LDR       A1, [A1, #0]          ; [DPU_V7M3_PIPE] |2244| 
        CBNZ      A1, ||$C$L90||        ; [] 
        ; BRANCHCC OCCURS {||$C$L90||}   ; [] |2244| 
;* --------------------------------------------------------------------------*
        MOVS      A1, #1                ; [DPU_V7M3_PIPE] |2244| 
        B         ||$C$L91||            ; [DPU_V7M3_PIPE] |2244| 
        ; BRANCH OCCURS {||$C$L91||}     ; [] |2244| 
;* --------------------------------------------------------------------------*
||$C$L90||:    
        MOVS      A1, #0                ; [DPU_V7M3_PIPE] |2244| 
;* --------------------------------------------------------------------------*
||$C$L91||:    
        CMP       A1, #0                ; [DPU_V7M3_PIPE] |2244| 
        BEQ       ||$C$L85||            ; [DPU_V7M3_PIPE] |2244| 
        ; BRANCHCC OCCURS {||$C$L85||}   ; [] |2244| 
;* --------------------------------------------------------------------------*
	.dwendtag $C$DW$271

	.dwpsn	file "C:/Tools/Thirdparty/FreeRTOSv202112.00/FreeRTOS/Source/tasks.c",line 2264,column 17,is_stmt,isa 1
        LDR       A1, [SP, #0]          ; [DPU_V7M3_PIPE] |2264| 
        CBZ       A1, ||$C$L92||        ; [] 
        ; BRANCHCC OCCURS {||$C$L92||}   ; [] |2264| 
;* --------------------------------------------------------------------------*
	.dwpsn	file "C:/Tools/Thirdparty/FreeRTOSv202112.00/FreeRTOS/Source/tasks.c",line 2272,column 21,is_stmt,isa 1
$C$DW$279	.dwtag  DW_TAG_TI_branch
	.dwattr $C$DW$279, DW_AT_low_pc(0x00)
	.dwattr $C$DW$279, DW_AT_name("prvResetNextTaskUnblockTime")
	.dwattr $C$DW$279, DW_AT_TI_call

        BL        prvResetNextTaskUnblockTime ; [DPU_V7M3_PIPE] |2272| 
        ; CALL OCCURS {prvResetNextTaskUnblockTime }  ; [] |2272| 
;* --------------------------------------------------------------------------*
||$C$L92||:    

$C$DW$280	.dwtag  DW_TAG_lexical_block
	.dwattr $C$DW$280, DW_AT_low_pc(0x00)
	.dwattr $C$DW$280, DW_AT_high_pc(0x00)
$C$DW$281	.dwtag  DW_TAG_variable
	.dwattr $C$DW$281, DW_AT_name("xPendedCounts")
	.dwattr $C$DW$281, DW_AT_TI_symbol_name("xPendedCounts")
	.dwattr $C$DW$281, DW_AT_type(*$C$DW$T$54)
	.dwattr $C$DW$281, DW_AT_location[DW_OP_breg13 8]

	.dwpsn	file "C:/Tools/Thirdparty/FreeRTOSv202112.00/FreeRTOS/Source/tasks.c",line 2280,column 46,is_stmt,isa 1
        LDR       A1, $C$CON37          ; [DPU_V7M3_PIPE] |2280| 
        LDR       A1, [A1, #0]          ; [DPU_V7M3_PIPE] |2280| 
        STR       A1, [SP, #8]          ; [DPU_V7M3_PIPE] |2280| 
	.dwpsn	file "C:/Tools/Thirdparty/FreeRTOSv202112.00/FreeRTOS/Source/tasks.c",line 2282,column 21,is_stmt,isa 1
        LDR       A1, [SP, #8]          ; [DPU_V7M3_PIPE] |2282| 
        CBZ       A1, ||$C$L95||        ; [] 
        ; BRANCHCC OCCURS {||$C$L95||}   ; [] |2282| 
;* --------------------------------------------------------------------------*
;*   BEGIN LOOP ||$C$L93||
;*
;*   Loop source line                : 2284
;*   Loop closing brace source line  : 2296
;*   Known Minimum Trip Count        : 1
;*   Known Maximum Trip Count        : 4294967295
;*   Known Max Trip Count Factor     : 1
;* --------------------------------------------------------------------------*
||$C$L93||:    
	.dwpsn	file "C:/Tools/Thirdparty/FreeRTOSv202112.00/FreeRTOS/Source/tasks.c",line 2286,column 29,is_stmt,isa 1
$C$DW$282	.dwtag  DW_TAG_TI_branch
	.dwattr $C$DW$282, DW_AT_low_pc(0x00)
	.dwattr $C$DW$282, DW_AT_name("xTaskIncrementTick")
	.dwattr $C$DW$282, DW_AT_TI_call

        BL        xTaskIncrementTick    ; [DPU_V7M3_PIPE] |2286| 
        ; CALL OCCURS {xTaskIncrementTick }  ; [] |2286| 
        CBZ       A1, ||$C$L94||        ; [] 
        ; BRANCHCC OCCURS {||$C$L94||}   ; [] |2286| 
;* --------------------------------------------------------------------------*
	.dwpsn	file "C:/Tools/Thirdparty/FreeRTOSv202112.00/FreeRTOS/Source/tasks.c",line 2288,column 33,is_stmt,isa 1
        LDR       A2, $C$CON26          ; [DPU_V7M3_PIPE] |2288| 
        MOVS      A1, #1                ; [DPU_V7M3_PIPE] |2288| 
        STR       A1, [A2, #0]          ; [DPU_V7M3_PIPE] |2288| 
;* --------------------------------------------------------------------------*
||$C$L94||:    
	.dwpsn	file "C:/Tools/Thirdparty/FreeRTOSv202112.00/FreeRTOS/Source/tasks.c",line 2295,column 29,is_stmt,isa 1
        LDR       A1, [SP, #8]          ; [DPU_V7M3_PIPE] |2295| 
        SUBS      A1, A1, #1            ; [DPU_V7M3_PIPE] |2295| 
        STR       A1, [SP, #8]          ; [DPU_V7M3_PIPE] |2295| 
	.dwpsn	file "C:/Tools/Thirdparty/FreeRTOSv202112.00/FreeRTOS/Source/tasks.c",line 2296,column 34,is_stmt,isa 1
        LDR       A1, [SP, #8]          ; [DPU_V7M3_PIPE] |2296| 
        CMP       A1, #0                ; [DPU_V7M3_PIPE] |2296| 
        BNE       ||$C$L93||            ; [DPU_V7M3_PIPE] |2296| 
        ; BRANCHCC OCCURS {||$C$L93||}   ; [] |2296| 
;* --------------------------------------------------------------------------*
	.dwpsn	file "C:/Tools/Thirdparty/FreeRTOSv202112.00/FreeRTOS/Source/tasks.c",line 2298,column 25,is_stmt,isa 1
        LDR       A2, $C$CON37          ; [DPU_V7M3_PIPE] |2298| 
        MOVS      A1, #0                ; [DPU_V7M3_PIPE] |2298| 
        STR       A1, [A2, #0]          ; [DPU_V7M3_PIPE] |2298| 
;* --------------------------------------------------------------------------*
||$C$L95||:    
	.dwendtag $C$DW$280

	.dwpsn	file "C:/Tools/Thirdparty/FreeRTOSv202112.00/FreeRTOS/Source/tasks.c",line 2306,column 17,is_stmt,isa 1
        LDR       A1, $C$CON26          ; [DPU_V7M3_PIPE] |2306| 
        LDR       A1, [A1, #0]          ; [DPU_V7M3_PIPE] |2306| 
        CBZ       A1, ||$C$L96||        ; [] 
        ; BRANCHCC OCCURS {||$C$L96||}   ; [] |2306| 
;* --------------------------------------------------------------------------*
	.dwpsn	file "C:/Tools/Thirdparty/FreeRTOSv202112.00/FreeRTOS/Source/tasks.c",line 2310,column 29,is_stmt,isa 1
        MOVS      A1, #1                ; [DPU_V7M3_PIPE] |2310| 
        STR       A1, [SP, #4]          ; [DPU_V7M3_PIPE] |2310| 
	.dwpsn	file "C:/Tools/Thirdparty/FreeRTOSv202112.00/FreeRTOS/Source/tasks.c",line 2313,column 21,is_stmt,isa 1
        LDR       A2, $C$CON41          ; [DPU_V7M3_PIPE] |2313| 
        MOV       A1, #268435456        ; [DPU_V7M3_PIPE] |2313| 
        STR       A1, [A2, #0]          ; [DPU_V7M3_PIPE] |2313| 
	dsb
	isb
;* --------------------------------------------------------------------------*
||$C$L96||:    
	.dwendtag $C$DW$270

;* --------------------------------------------------------------------------*
||$C$L97||:    
	.dwendtag $C$DW$269

	.dwendtag $C$DW$268

;* --------------------------------------------------------------------------*
||$C$L98||:    
	.dwendtag $C$DW$267

	.dwendtag $C$DW$266

	.dwpsn	file "C:/Tools/Thirdparty/FreeRTOSv202112.00/FreeRTOS/Source/tasks.c",line 2326,column 5,is_stmt,isa 1
$C$DW$283	.dwtag  DW_TAG_TI_branch
	.dwattr $C$DW$283, DW_AT_low_pc(0x00)
	.dwattr $C$DW$283, DW_AT_name("vPortExitCritical")
	.dwattr $C$DW$283, DW_AT_TI_call

        BL        vPortExitCritical     ; [DPU_V7M3_PIPE] |2326| 
        ; CALL OCCURS {vPortExitCritical }  ; [] |2326| 
	.dwpsn	file "C:/Tools/Thirdparty/FreeRTOSv202112.00/FreeRTOS/Source/tasks.c",line 2328,column 5,is_stmt,isa 1
        LDR       A1, [SP, #4]          ; [DPU_V7M3_PIPE] |2328| 
	.dwpsn	file "C:/Tools/Thirdparty/FreeRTOSv202112.00/FreeRTOS/Source/tasks.c",line 2329,column 1,is_stmt,isa 1
$C$DW$284	.dwtag  DW_TAG_TI_branch
	.dwattr $C$DW$284, DW_AT_low_pc(0x00)
	.dwattr $C$DW$284, DW_AT_TI_return

        POP       {A2, A3, A4, PC}      ; [DPU_V7M3_PIPE] 
	.dwcfi	cfa_offset, 0
	.dwcfi	restore_reg, 3
	.dwcfi	restore_reg, 2
	.dwcfi	restore_reg, 1
        ; BRANCH OCCURS                  ; [] 
	.dwattr $C$DW$262, DW_AT_TI_end_file("C:/Tools/Thirdparty/FreeRTOSv202112.00/FreeRTOS/Source/tasks.c")
	.dwattr $C$DW$262, DW_AT_TI_end_line(0x919)
	.dwattr $C$DW$262, DW_AT_TI_end_column(0x01)
	.dwendentry
	.dwendtag $C$DW$262

;******************************************************************************
;* CONSTANT TABLE                                                             *
;******************************************************************************
	.sect	".text"
	.align	4
||$C$CON25||:	.bits	uxSchedulerSuspended,32
	.sect	".text"
	.clink
	.thumbfunc xTaskGetTickCount
	.thumb
	.global	xTaskGetTickCount

$C$DW$285	.dwtag  DW_TAG_subprogram
	.dwattr $C$DW$285, DW_AT_name("xTaskGetTickCount")
	.dwattr $C$DW$285, DW_AT_low_pc(xTaskGetTickCount)
	.dwattr $C$DW$285, DW_AT_high_pc(0x00)
	.dwattr $C$DW$285, DW_AT_TI_symbol_name("xTaskGetTickCount")
	.dwattr $C$DW$285, DW_AT_external
	.dwattr $C$DW$285, DW_AT_type(*$C$DW$T$54)
	.dwattr $C$DW$285, DW_AT_TI_begin_file("C:/Tools/Thirdparty/FreeRTOSv202112.00/FreeRTOS/Source/tasks.c")
	.dwattr $C$DW$285, DW_AT_TI_begin_line(0x91c)
	.dwattr $C$DW$285, DW_AT_TI_begin_column(0x0c)
	.dwattr $C$DW$285, DW_AT_decl_file("C:/Tools/Thirdparty/FreeRTOSv202112.00/FreeRTOS/Source/tasks.c")
	.dwattr $C$DW$285, DW_AT_decl_line(0x91c)
	.dwattr $C$DW$285, DW_AT_decl_column(0x0c)
	.dwattr $C$DW$285, DW_AT_TI_max_frame_size(0x08)
	.dwpsn	file "C:/Tools/Thirdparty/FreeRTOSv202112.00/FreeRTOS/Source/tasks.c",line 2333,column 1,is_stmt,address xTaskGetTickCount,isa 1

	.dwfde $C$DW$CIE, xTaskGetTickCount

;*****************************************************************************
;* FUNCTION NAME: xTaskGetTickCount                                          *
;*                                                                           *
;*   Regs Modified     : A1,SP                                               *
;*   Regs Used         : A1,SP,LR                                            *
;*   Local Frame Size  : 0 Args + 4 Auto + 0 Save = 4 byte                   *
;*****************************************************************************
xTaskGetTickCount:
;* --------------------------------------------------------------------------*
	.dwcfi	cfa_offset, 0
        SUB       SP, SP, #8            ; [DPU_V7M3_PIPE] 
	.dwcfi	cfa_offset, 8
$C$DW$286	.dwtag  DW_TAG_variable
	.dwattr $C$DW$286, DW_AT_name("xTicks")
	.dwattr $C$DW$286, DW_AT_TI_symbol_name("xTicks")
	.dwattr $C$DW$286, DW_AT_type(*$C$DW$T$54)
	.dwattr $C$DW$286, DW_AT_location[DW_OP_breg13 0]

	.dwpsn	file "C:/Tools/Thirdparty/FreeRTOSv202112.00/FreeRTOS/Source/tasks.c",line 2339,column 9,is_stmt,isa 1
        LDR       A1, $C$CON34          ; [DPU_V7M3_PIPE] |2339| 
        LDR       A1, [A1, #0]          ; [DPU_V7M3_PIPE] |2339| 
        STR       A1, [SP, #0]          ; [DPU_V7M3_PIPE] |2339| 
	.dwpsn	file "C:/Tools/Thirdparty/FreeRTOSv202112.00/FreeRTOS/Source/tasks.c",line 2343,column 5,is_stmt,isa 1
        LDR       A1, [SP, #0]          ; [DPU_V7M3_PIPE] |2343| 
	.dwpsn	file "C:/Tools/Thirdparty/FreeRTOSv202112.00/FreeRTOS/Source/tasks.c",line 2344,column 1,is_stmt,isa 1
        ADD       SP, SP, #8            ; [DPU_V7M3_PIPE] 
	.dwcfi	cfa_offset, 0
$C$DW$287	.dwtag  DW_TAG_TI_branch
	.dwattr $C$DW$287, DW_AT_low_pc(0x00)
	.dwattr $C$DW$287, DW_AT_TI_return

        BX        LR                    ; [DPU_V7M3_PIPE] 
        ; BRANCH OCCURS                  ; [] 
	.dwattr $C$DW$285, DW_AT_TI_end_file("C:/Tools/Thirdparty/FreeRTOSv202112.00/FreeRTOS/Source/tasks.c")
	.dwattr $C$DW$285, DW_AT_TI_end_line(0x928)
	.dwattr $C$DW$285, DW_AT_TI_end_column(0x01)
	.dwendentry
	.dwendtag $C$DW$285

;******************************************************************************
;* CONSTANT TABLE                                                             *
;******************************************************************************
	.sect	".text"
	.align	4
||$C$CON26||:	.bits	xYieldPending,32
	.sect	".text"
	.clink
	.thumbfunc xTaskGetTickCountFromISR
	.thumb
	.global	xTaskGetTickCountFromISR

$C$DW$288	.dwtag  DW_TAG_subprogram
	.dwattr $C$DW$288, DW_AT_name("xTaskGetTickCountFromISR")
	.dwattr $C$DW$288, DW_AT_low_pc(xTaskGetTickCountFromISR)
	.dwattr $C$DW$288, DW_AT_high_pc(0x00)
	.dwattr $C$DW$288, DW_AT_TI_symbol_name("xTaskGetTickCountFromISR")
	.dwattr $C$DW$288, DW_AT_external
	.dwattr $C$DW$288, DW_AT_type(*$C$DW$T$54)
	.dwattr $C$DW$288, DW_AT_TI_begin_file("C:/Tools/Thirdparty/FreeRTOSv202112.00/FreeRTOS/Source/tasks.c")
	.dwattr $C$DW$288, DW_AT_TI_begin_line(0x92b)
	.dwattr $C$DW$288, DW_AT_TI_begin_column(0x0c)
	.dwattr $C$DW$288, DW_AT_decl_file("C:/Tools/Thirdparty/FreeRTOSv202112.00/FreeRTOS/Source/tasks.c")
	.dwattr $C$DW$288, DW_AT_decl_line(0x92b)
	.dwattr $C$DW$288, DW_AT_decl_column(0x0c)
	.dwattr $C$DW$288, DW_AT_TI_max_frame_size(0x08)
	.dwpsn	file "C:/Tools/Thirdparty/FreeRTOSv202112.00/FreeRTOS/Source/tasks.c",line 2348,column 1,is_stmt,address xTaskGetTickCountFromISR,isa 1

	.dwfde $C$DW$CIE, xTaskGetTickCountFromISR

;*****************************************************************************
;* FUNCTION NAME: xTaskGetTickCountFromISR                                   *
;*                                                                           *
;*   Regs Modified     : A1,SP,SR                                            *
;*   Regs Used         : A1,SP,LR,SR                                         *
;*   Local Frame Size  : 0 Args + 8 Auto + 0 Save = 8 byte                   *
